(lp0
(dp1
S'detaiLink'
p2
S'/torrent/7034073/Underworld_Awakening[2012]R5_Full_Line_XviD-ETRG'
p3
sS'name'
p4
S'Underworld_Awakening[2012]R5_Full_Line_XviD-ETRG'
p5
sS'uploaderPage'
p6
S'/user/SaM/'
p7
sS'uploaderName'
p8
S'SaM'
p9
sS'downloadLink'
p10
S'magnet:?xt=urn:btih:f36ccf4a8a47fd782b8123d48dfcdd945cb1f893&dn=Underworld+Awakening%5B2012%5DR5+Full+Line+XviD-ETRG&tr=udp%3A%2F%2Ftracker.openbittorrent.com%3A80&tr=udp%3A%2F%2Ftracker.publicbt.com%3A80&tr=udp%3A%2F%2Ftracker.ccc.de%3A80'
p11
sS'id'
p12
S'7034073'
p13
sa(dp14
g2
S'/torrent/7034151/Immortals_(2011)_DVDRip_XviD-MAX'
p15
sg4
S'Immortals_(2011)_DVDRip_XviD-MAX'
p16
sg6
S'/user/extremezone/'
p17
sg8
S'extremezone'
p18
sg10
S'magnet:?xt=urn:btih:5f24c1756c92592baf931a8fc803fc9e37be879d&dn=Immortals+%282011%29+DVDRip+XviD-MAX&tr=udp%3A%2F%2Ftracker.openbittorrent.com%3A80&tr=udp%3A%2F%2Ftracker.publicbt.com%3A80&tr=udp%3A%2F%2Ftracker.ccc.de%3A80'
p19
sg12
S'7034151'
p20
sa(dp21
g2
S'/torrent/6804632/Call_of_Duty_Modern_Warfare_3-RELOADED'
p22
sg4
S'Call_of_Duty_Modern_Warfare_3-RELOADED'
p23
sg6
S'/user/extremezone/'
p24
sg8
S'extremezone'
p25
sg10
S'magnet:?xt=urn:btih:24d07d7050ca3fb00af55752cec597d7b1731058&dn=Call+of+Duty+Modern+Warfare+3-RELOADED&tr=udp%3A%2F%2Ftracker.openbittorrent.com%3A80&tr=udp%3A%2F%2Ftracker.publicbt.com%3A80&tr=udp%3A%2F%2Ftracker.ccc.de%3A80'
p26
sg12
S'6804632'
p27
sa(dp28
g2
S'/torrent/7037813/The_Big_Bang_Theory_S05E17_HDTV_XviD-LOL_[eztv]'
p29
sg4
S'The_Big_Bang_Theory_S05E17_HDTV_XviD-LOL_[eztv]'
p30
sg6
S'/user/eztv/'
p31
sg8
S'eztv'
p32
sg10
S'magnet:?xt=urn:btih:c2cfcd8d857135aa507cfc8f48ad0f77caa6dfef&dn=The+Big+Bang+Theory+S05E17+HDTV+XviD-LOL+%5Beztv%5D&tr=udp%3A%2F%2Ftracker.openbittorrent.com%3A80&tr=udp%3A%2F%2Ftracker.publicbt.com%3A80&tr=udp%3A%2F%2Ftracker.ccc.de%3A80'
p33
sg12
S'7037813'
p34
sa(dp35
g2
S'/torrent/6863761/PrettyLights-BT'
p36
sg4
S'PrettyLights-BT'
p37
sg6
S'/user/FRITZBox/'
p38
sg8
S'FRITZBox'
p39
sg10
S'magnet:?xt=urn:btih:ee3eb1acec1dc7adc73eda16d05a495bea1dd4be&dn=PrettyLights-BT&tr=udp%3A%2F%2Ftracker.openbittorrent.com%3A80&tr=udp%3A%2F%2Ftracker.publicbt.com%3A80&tr=udp%3A%2F%2Ftracker.ccc.de%3A80'
p40
sg12
S'6863761'
p41
sa(dp42
g2
S'/torrent/7029670/How.I.Met.Your.Mother.S07E16.HDTV.XviD-LOL.[VTV].avi'
p43
sg4
S'How.I.Met.Your.Mother.S07E16.HDTV.XviD-LOL.[VTV].avi'
p44
sg6
S'/user/VTV/'
p45
sg8
S'VTV'
p46
sg10
S'magnet:?xt=urn:btih:909cb893d753727e136100416c49b2b4e34193d6&dn=How.I.Met.Your.Mother.S07E16.HDTV.XviD-LOL.%5BVTV%5D.avi&tr=udp%3A%2F%2Ftracker.openbittorrent.com%3A80&tr=udp%3A%2F%2Ftracker.publicbt.com%3A80&tr=udp%3A%2F%2Ftracker.ccc.de%3A80'
p47
sg12
S'7029670'
p48
sa(dp49
g2
S'/torrent/7023001/J_Edgar_2011_DVDRip_XviD-PADDO'
p50
sg4
S'J_Edgar_2011_DVDRip_XviD-PADDO'
p51
sg6
S'/user/boobsman/'
p52
sg8
S'boobsman'
p53
sg10
S'magnet:?xt=urn:btih:f84b942f0c11448a12715468a498fe856533cdcf&dn=J+Edgar+2011+DVDRip+XviD-PADDO&tr=udp%3A%2F%2Ftracker.openbittorrent.com%3A80&tr=udp%3A%2F%2Ftracker.publicbt.com%3A80&tr=udp%3A%2F%2Ftracker.ccc.de%3A80'
p54
sg12
S'7023001'
p55
sa(dp56
g2
S'/torrent/7035555/Modern_Family_S03E15_HDTV_XviD-LOL_[eztv]'
p57
sg4
S'Modern_Family_S03E15_HDTV_XviD-LOL_[eztv]'
p58
sg6
S'/user/eztv/'
p59
sg8
S'eztv'
p60
sg10
S'magnet:?xt=urn:btih:1997614a9fb4ecb70f35d7a97b19b363e0fd2979&dn=Modern+Family+S03E15+HDTV+XviD-LOL+%5Beztv%5D&tr=udp%3A%2F%2Ftracker.openbittorrent.com%3A80&tr=udp%3A%2F%2Ftracker.publicbt.com%3A80&tr=udp%3A%2F%2Ftracker.ccc.de%3A80'
p61
sg12
S'7035555'
p62
sa(dp63
g2
S'/torrent/7005412/The_Three_Musketeers_(2011)_DVDRip_XviD-MAX'
p64
sg4
S'The_Three_Musketeers_(2011)_DVDRip_XviD-MAX'
p65
sg6
S'/user/extremezone/'
p66
sg8
S'extremezone'
p67
sg10
S'magnet:?xt=urn:btih:632045e8bc80c70d49008cc0217411e4850ca06d&dn=The+Three+Musketeers+%282011%29+DVDRip+XviD-MAX&tr=udp%3A%2F%2Ftracker.openbittorrent.com%3A80&tr=udp%3A%2F%2Ftracker.publicbt.com%3A80&tr=udp%3A%2F%2Ftracker.ccc.de%3A80'
p68
sg12
S'7005412'
p69
sa(dp70
g2
S'/torrent/7035723/Revenge.S01E15.HDTV.XviD-LOL.[VTV].avi'
p71
sg4
S'Revenge.S01E15.HDTV.XviD-LOL.[VTV].avi'
p72
sg6
S'/user/VTV/'
p73
sg8
S'VTV'
p74
sg10
S'magnet:?xt=urn:btih:9fc0c18e04fef8f865e50bc05ed96fe49629f50a&dn=Revenge.S01E15.HDTV.XviD-LOL.%5BVTV%5D.avi&tr=udp%3A%2F%2Ftracker.openbittorrent.com%3A80&tr=udp%3A%2F%2Ftracker.publicbt.com%3A80&tr=udp%3A%2F%2Ftracker.ccc.de%3A80'
p75
sg12
S'7035723'
p76
sa(dp77
g2
S'/torrent/7027211/The_Walking_Dead_S02E08_Nebraska_HDTV_XviD-FQM[ettv]'
p78
sg4
S'The_Walking_Dead_S02E08_Nebraska_HDTV_XviD-FQM[ettv]'
p79
sg6
S'/user/ettv/'
p80
sg8
S'ettv'
p81
sg10
S'magnet:?xt=urn:btih:79afd0045c721ec9c19b813b9b54dc674312c517&dn=The+Walking+Dead+S02E08+Nebraska+HDTV+XviD-FQM%5Bettv%5D&tr=udp%3A%2F%2Ftracker.openbittorrent.com%3A80&tr=udp%3A%2F%2Ftracker.publicbt.com%3A80&tr=udp%3A%2F%2Ftracker.ccc.de%3A80'
p82
sg12
S'7027211'
p83
sa(dp84
g2
S'/torrent/7037819/The.Mentalist.S04E15.HDTV.XviD-LOL.[VTV].avi'
p85
sg4
S'The.Mentalist.S04E15.HDTV.XviD-LOL.[VTV].avi'
p86
sg6
S'/user/VTV/'
p87
sg8
S'VTV'
p88
sg10
S'magnet:?xt=urn:btih:3b3cd4407e184d54dc3a7231d8110678375ae287&dn=The.Mentalist.S04E15.HDTV.XviD-LOL.%5BVTV%5D.avi&tr=udp%3A%2F%2Ftracker.openbittorrent.com%3A80&tr=udp%3A%2F%2Ftracker.publicbt.com%3A80&tr=udp%3A%2F%2Ftracker.ccc.de%3A80'
p89
sg12
S'7037819'
p90
sa(dp91
g2
S'/torrent/7020128/Tower.Heist.2011.DVDRip-PA'
p92
sg4
S'Tower.Heist.2011.DVDRip-PA'
p93
sg6
S'/user/LegendET/'
p94
sg8
S'LegendET'
p95
sg10
S'magnet:?xt=urn:btih:0581dbd0e8917658ed5b641d3b037002cbe5965c&dn=Tower.Heist.2011.DVDRip-PA&tr=udp%3A%2F%2Ftracker.openbittorrent.com%3A80&tr=udp%3A%2F%2Ftracker.publicbt.com%3A80&tr=udp%3A%2F%2Ftracker.ccc.de%3A80'
p96
sg12
S'7020128'
p97
sa(dp98
g2
S'/torrent/6978371/The_Girl_With_A_Dragon_Tattoo_2011_DVDSCR_XviD_AC3-FTW'
p99
sg4
S'The_Girl_With_A_Dragon_Tattoo_2011_DVDSCR_XviD_AC3-FTW'
p100
sg6
S'/user/SaM/'
p101
sg8
S'SaM'
p102
sg10
S'magnet:?xt=urn:btih:1f75170b358e5307644272c6a1dc839ff8d873ff&dn=The+Girl+With+A+Dragon+Tattoo+2011+DVDSCR+XviD+AC3-FTW&tr=udp%3A%2F%2Ftracker.openbittorrent.com%3A80&tr=udp%3A%2F%2Ftracker.publicbt.com%3A80&tr=udp%3A%2F%2Ftracker.ccc.de%3A80'
p103
sg12
S'6978371'
p104
sa(dp105
g2
S'/torrent/6302440/DriverPack_Solution_11_(x32-x64)__[_Victory]_'
p106
sg4
S'DriverPack_Solution_11_(x32-x64)__[_Victory]_'
p107
sg6
S'/user/victory144/'
p108
sg8
S'victory144'
p109
sg10
S'magnet:?xt=urn:btih:a6db978a936cb460292c4574dc3ed5d81cd33455&dn=DriverPack+Solution+11+%28x32-x64%29++%5B+Victory%5D+&tr=udp%3A%2F%2Ftracker.openbittorrent.com%3A80&tr=udp%3A%2F%2Ftracker.publicbt.com%3A80&tr=udp%3A%2F%2Ftracker.ccc.de%3A80'
p110
sg12
S'6302440'
p111
sa(dp112
g2
S'/torrent/6800294/Rise_of_the_Planet_of_the_Apes_(2011)_DVDRip_XviD-MAX'
p113
sg4
S'Rise_of_the_Planet_of_the_Apes_(2011)_DVDRip_XviD-MAX'
p114
sg6
S'/user/extremezone/'
p115
sg8
S'extremezone'
p116
sg10
S'magnet:?xt=urn:btih:1dc3cab02bde66b7d6f9974c4260f9e86de78743&dn=Rise+of+the+Planet+of+the+Apes+%282011%29+DVDRip+XviD-MAX&tr=udp%3A%2F%2Ftracker.openbittorrent.com%3A80&tr=udp%3A%2F%2Ftracker.publicbt.com%3A80&tr=udp%3A%2F%2Ftracker.ccc.de%3A80'
p117
sg12
S'6800294'
p118
sa(dp119
g2
S'/torrent/7037817/30_Rock_S06E08_HDTV_XviD-LOL_[eztv]'
p120
sg4
S'30_Rock_S06E08_HDTV_XviD-LOL_[eztv]'
p121
sg6
S'/user/eztv/'
p122
sg8
S'eztv'
p123
sg10
S'magnet:?xt=urn:btih:f7bb869672b1e9fd87055047b9ed0a5bc0b8b9de&dn=30+Rock+S06E08+HDTV+XviD-LOL+%5Beztv%5D&tr=udp%3A%2F%2Ftracker.openbittorrent.com%3A80&tr=udp%3A%2F%2Ftracker.publicbt.com%3A80&tr=udp%3A%2F%2Ftracker.ccc.de%3A80'
p124
sg12
S'7037817'
p125
sa(dp126
g2
S'/torrent/7034734/Alan_Wake-SKIDROW'
p127
sg4
S'Alan_Wake-SKIDROW'
p128
sg6
S'/user/extremezone/'
p129
sg8
S'extremezone'
p130
sg10
S'magnet:?xt=urn:btih:4edcc19a4f98079d4af0ed366ff3bd6b8df333b8&dn=Alan+Wake-SKIDROW&tr=udp%3A%2F%2Ftracker.openbittorrent.com%3A80&tr=udp%3A%2F%2Ftracker.publicbt.com%3A80&tr=udp%3A%2F%2Ftracker.ccc.de%3A80'
p131
sg12
S'7034734'
p132
sa(dp133
g2
S'/torrent/7034015/Sleeping_Beauty_(2011)_BRRip_Xvid_AC3-Anarchy'
p134
sg4
S'Sleeping_Beauty_(2011)_BRRip_Xvid_AC3-Anarchy'
p135
sg6
S'/user/fasamoo/'
p136
sg8
S'fasamoo'
p137
sg10
S'magnet:?xt=urn:btih:389d5d98a3717aafa1e40212e3d4059d9cc454d4&dn=Sleeping+Beauty+%282011%29+BRRip+Xvid+AC3-Anarchy&tr=udp%3A%2F%2Ftracker.openbittorrent.com%3A80&tr=udp%3A%2F%2Ftracker.publicbt.com%3A80&tr=udp%3A%2F%2Ftracker.ccc.de%3A80'
p138
sg12
S'7034015'
p139
sa(dp140
g2
S'/torrent/7029891/Alcatraz.S01E06.HDTV.XviD-LOL.[VTV].avi'
p141
sg4
S'Alcatraz.S01E06.HDTV.XviD-LOL.[VTV].avi'
p142
sg6
S'/user/VTV/'
p143
sg8
S'VTV'
p144
sg10
S'magnet:?xt=urn:btih:1101a8b5af42ef5348d8f560a1830104968db366&dn=Alcatraz.S01E06.HDTV.XviD-LOL.%5BVTV%5D.avi&tr=udp%3A%2F%2Ftracker.openbittorrent.com%3A80&tr=udp%3A%2F%2Ftracker.publicbt.com%3A80&tr=udp%3A%2F%2Ftracker.ccc.de%3A80'
p145
sg12
S'7029891'
p146
sa(dp147
g2
S'/torrent/7021187/The_Big_Bang_Theory_S05E16_HDTV_XviD-LOL_[eztv]'
p148
sg4
S'The_Big_Bang_Theory_S05E16_HDTV_XviD-LOL_[eztv]'
p149
sg6
S'/user/eztv/'
p150
sg8
S'eztv'
p151
sg10
S'magnet:?xt=urn:btih:1f3c513ba09529ae5c6f441359fda9bfa159b560&dn=The+Big+Bang+Theory+S05E16+HDTV+XviD-LOL+%5Beztv%5D&tr=udp%3A%2F%2Ftracker.openbittorrent.com%3A80&tr=udp%3A%2F%2Ftracker.publicbt.com%3A80&tr=udp%3A%2F%2Ftracker.ccc.de%3A80'
p152
sg12
S'7021187'
p153
sa(dp154
g2
S'/torrent/6964457/In_Time_(2011)_DVDRip_XviD-MAX'
p155
sg4
S'In_Time_(2011)_DVDRip_XviD-MAX'
p156
sg6
S'/user/extremezone/'
p157
sg8
S'extremezone'
p158
sg10
S'magnet:?xt=urn:btih:cb8dc1959bee01e714f9f082de5abf7d0bc005ee&dn=In+Time+%282011%29+DVDRip+XviD-MAX&tr=udp%3A%2F%2Ftracker.openbittorrent.com%3A80&tr=udp%3A%2F%2Ftracker.publicbt.com%3A80&tr=udp%3A%2F%2Ftracker.ccc.de%3A80'
p159
sg12
S'6964457'
p160
sa(dp161
g2
S'/torrent/7022659/Puss_in_Boots[2011]BRRip_XviD-ETRG'
p162
sg4
S'Puss_in_Boots[2011]BRRip_XviD-ETRG'
p163
sg6
S'/user/SaM/'
p164
sg8
S'SaM'
p165
sg10
S'magnet:?xt=urn:btih:2deeffcb7e7b3a0c35d7fa22e9bbe5b485a50766&dn=Puss+in+Boots%5B2011%5DBRRip+XviD-ETRG&tr=udp%3A%2F%2Ftracker.openbittorrent.com%3A80&tr=udp%3A%2F%2Ftracker.publicbt.com%3A80&tr=udp%3A%2F%2Ftracker.ccc.de%3A80'
p166
sg12
S'7022659'
p167
sa(dp168
g2
S'/torrent/6927675/Real_Steel_2011_DVDRip.XviD.AC3-3LT0N'
p169
sg4
S'Real_Steel_2011_DVDRip.XviD.AC3-3LT0N'
p170
sg6
S'/user/neon/'
p171
sg8
S'neon'
p172
sg10
S'magnet:?xt=urn:btih:273b2293147f9d9f1fd18259ff551ba4c10393d1&dn=Real+Steel+2011+DVDRip.XviD.AC3-3LT0N&tr=udp%3A%2F%2Ftracker.openbittorrent.com%3A80&tr=udp%3A%2F%2Ftracker.publicbt.com%3A80&tr=udp%3A%2F%2Ftracker.ccc.de%3A80'
p173
sg12
S'6927675'
p174
sa(dp175
g2
S'/torrent/6806624/Drake_-_Take_Care_(Deluxe_Version)_[Official_Album]_[CD-Rip]'
p176
sg4
S'Drake_-_Take_Care_(Deluxe_Version)_[Official_Album]_[CD-Rip]'
p177
sg6
S'/user/theLEAK/'
p178
sg8
S'theLEAK'
p179
sg10
S'magnet:?xt=urn:btih:03db8637a8e16f7d5e3e4f7557d5d87b1905dc16&dn=Drake+-+Take+Care+%28Deluxe+Version%29+%5BOfficial+Album%5D+%5BCD-Rip%5D&tr=udp%3A%2F%2Ftracker.openbittorrent.com%3A80&tr=udp%3A%2F%2Ftracker.publicbt.com%3A80&tr=udp%3A%2F%2Ftracker.ccc.de%3A80'
p180
sg12
S'6806624'
p181
sa(dp182
g2
S'/torrent/7035600/Criminal.Minds.S07E14.HDTV.XviD-LOL.[VTV].avi'
p183
sg4
S'Criminal.Minds.S07E14.HDTV.XviD-LOL.[VTV].avi'
p184
sg6
S'/user/VTV/'
p185
sg8
S'VTV'
p186
sg10
S'magnet:?xt=urn:btih:4680495d9f8fb014297dde4e539354cbec4f1f2f&dn=Criminal.Minds.S07E14.HDTV.XviD-LOL.%5BVTV%5D.avi&tr=udp%3A%2F%2Ftracker.openbittorrent.com%3A80&tr=udp%3A%2F%2Ftracker.publicbt.com%3A80&tr=udp%3A%2F%2Ftracker.ccc.de%3A80'
p187
sg12
S'7035600'
p188
sa(dp189
g2
S'/torrent/7029730/House_S08E12_HDTV_XviD-LOL_[eztv]'
p190
sg4
S'House_S08E12_HDTV_XviD-LOL_[eztv]'
p191
sg6
S'/user/eztv/'
p192
sg8
S'eztv'
p193
sg10
S'magnet:?xt=urn:btih:38710c0c2c005220c09ec33320b0c9de37e8286b&dn=House+S08E12+HDTV+XviD-LOL+%5Beztv%5D&tr=udp%3A%2F%2Ftracker.openbittorrent.com%3A80&tr=udp%3A%2F%2Ftracker.publicbt.com%3A80&tr=udp%3A%2F%2Ftracker.ccc.de%3A80'
p194
sg12
S'7029730'
p195
sa(dp196
g2
S'/torrent/7036710/UFC.On.Fuel.Sanchez.vs.Ellenberger.HDTV.x264-RUDOS'
p197
sg4
S'UFC.On.Fuel.Sanchez.vs.Ellenberger.HDTV.x264-RUDOS'
p198
sg6
S'/user/scene4all/'
p199
sg8
S'scene4all'
p200
sg10
S'magnet:?xt=urn:btih:744b2dfc7e0120acb85b24dae585aa7d5cefe35c&dn=UFC.On.Fuel.Sanchez.vs.Ellenberger.HDTV.x264-RUDOS&tr=udp%3A%2F%2Ftracker.openbittorrent.com%3A80&tr=udp%3A%2F%2Ftracker.publicbt.com%3A80&tr=udp%3A%2F%2Ftracker.ccc.de%3A80'
p201
sg12
S'7036710'
p202
sa(dp203
g2
S'/torrent/6802142/How_I_Met_Your_Mother_S07E09_HDTV_XviD-LOL[ettv]'
p204
sg4
S'How_I_Met_Your_Mother_S07E09_HDTV_XviD-LOL[ettv]'
p205
sg6
S'/user/ettv/'
p206
sg8
S'ettv'
p207
sg10
S'magnet:?xt=urn:btih:111f9b8a9e31e80dc34bcbdf014f6b7ce409c869&dn=How+I+Met+Your+Mother+S07E09+HDTV+XviD-LOL%5Bettv%5D&tr=udp%3A%2F%2Ftracker.openbittorrent.com%3A80&tr=udp%3A%2F%2Ftracker.publicbt.com%3A80&tr=udp%3A%2F%2Ftracker.ccc.de%3A80'
p208
sg12
S'6802142'
p209
sa(dp210
g2
S'/torrent/7031647/Underworld.Awakening.2012.R5.READNFO.XviD-BiDA'
p211
sg4
S'Underworld.Awakening.2012.R5.READNFO.XviD-BiDA'
p212
sg6
S'/user/LegendET/'
p213
sg8
S'LegendET'
p214
sg10
S'magnet:?xt=urn:btih:2cddd026e944cde5b4e5e06fe39750af79a95605&dn=Underworld.Awakening.2012.R5.READNFO.XviD-BiDA&tr=udp%3A%2F%2Ftracker.openbittorrent.com%3A80&tr=udp%3A%2F%2Ftracker.publicbt.com%3A80&tr=udp%3A%2F%2Ftracker.ccc.de%3A80'
p215
sg12
S'7031647'
p216
sa(dp217
g2
S'/torrent/6799668/The_Walking_Dead_S02E04_HDTV_XviD-ASAP[ettv]'
p218
sg4
S'The_Walking_Dead_S02E04_HDTV_XviD-ASAP[ettv]'
p219
sg6
S'/user/ettv/'
p220
sg8
S'ettv'
p221
sg10
S'magnet:?xt=urn:btih:308d92c9a645ec6d277b9c1d2998f92bda952195&dn=The+Walking+Dead+S02E04+HDTV+XviD-ASAP%5Bettv%5D&tr=udp%3A%2F%2Ftracker.openbittorrent.com%3A80&tr=udp%3A%2F%2Ftracker.publicbt.com%3A80&tr=udp%3A%2F%2Ftracker.ccc.de%3A80'
p222
sg12
S'6799668'
p223
sa(dp224
g2
S'/torrent/6808323/The_Elder_Scrolls_V_Skyrim-Razor1911'
p225
sg4
S'The_Elder_Scrolls_V_Skyrim-Razor1911'
p226
sg6
S'/user/extremezone/'
p227
sg8
S'extremezone'
p228
sg10
S'magnet:?xt=urn:btih:0a683534cc69c5ce3d23d7319442624256d78297&dn=The+Elder+Scrolls+V+Skyrim-Razor1911&tr=udp%3A%2F%2Ftracker.openbittorrent.com%3A80&tr=udp%3A%2F%2Ftracker.publicbt.com%3A80&tr=udp%3A%2F%2Ftracker.ccc.de%3A80'
p229
sg12
S'6808323'
p230
sa(dp231
g2
S'/torrent/7020277/Tower_Heist_(2011)_DVDRip_XviD-MAX'
p232
sg4
S'Tower_Heist_(2011)_DVDRip_XviD-MAX'
p233
sg6
S'/user/extremezone/'
p234
sg8
S'extremezone'
p235
sg10
S'magnet:?xt=urn:btih:f4b5634a53404036756c0c3d8fea1cbd03dcff67&dn=Tower+Heist+%282011%29+DVDRip+XviD-MAX&tr=udp%3A%2F%2Ftracker.openbittorrent.com%3A80&tr=udp%3A%2F%2Ftracker.publicbt.com%3A80&tr=udp%3A%2F%2Ftracker.ccc.de%3A80'
p236
sg12
S'7020277'
p237
sa(dp238
g2
S'/torrent/6983060/The.Rum.Diary.2011.DVDRiP.AC3-5.1.XviD-SiC'
p239
sg4
S'The.Rum.Diary.2011.DVDRiP.AC3-5.1.XviD-SiC'
p240
sg6
S'/user/HeroMaster/'
p241
sg8
S'HeroMaster'
p242
sg10
S'magnet:?xt=urn:btih:0eb5f0eaa74dad23e4e21d2e651a9e79ea34b1bb&dn=The.Rum.Diary.2011.DVDRiP.AC3-5.1.XviD-SiC&tr=udp%3A%2F%2Ftracker.openbittorrent.com%3A80&tr=udp%3A%2F%2Ftracker.publicbt.com%3A80&tr=udp%3A%2F%2Ftracker.ccc.de%3A80'
p243
sg12
S'6983060'
p244
sa(dp245
g2
S'/torrent/6940612/War.Horse.2011.DVDSCR.XVID.Une-CM8'
p246
sg4
S'War.Horse.2011.DVDSCR.XVID.Une-CM8'
p247
sg6
S'/user/LegendET/'
p248
sg8
S'LegendET'
p249
sg10
S'magnet:?xt=urn:btih:cece42a9aecd669bec0f3799cea49caead38becd&dn=War.Horse.2011.DVDSCR.XVID.Une-CM8&tr=udp%3A%2F%2Ftracker.openbittorrent.com%3A80&tr=udp%3A%2F%2Ftracker.publicbt.com%3A80&tr=udp%3A%2F%2Ftracker.ccc.de%3A80'
p250
sg12
S'6940612'
p251
sa(dp252
g2
S'/torrent/6962587/The_Descendants_2011_DVDSCR_XviD-GooN'
p253
sg4
S'The_Descendants_2011_DVDSCR_XviD-GooN'
p254
sg6
S'/user/Hackulus/'
p255
sg8
S'Hackulus'
p256
sg10
S'magnet:?xt=urn:btih:f75771dbb94fa6e0547d43e98a7b04da01d30743&dn=The+Descendants+2011+DVDSCR+XviD-GooN&tr=udp%3A%2F%2Ftracker.openbittorrent.com%3A80&tr=udp%3A%2F%2Ftracker.publicbt.com%3A80&tr=udp%3A%2F%2Ftracker.ccc.de%3A80'
p257
sg12
S'6962587'
p258
sa(dp259
g2
S'/torrent/6828300/Cowboys_and_Aliens_(2011)_DVDRip_XviD-MAX'
p260
sg4
S'Cowboys_and_Aliens_(2011)_DVDRip_XviD-MAX'
p261
sg6
S'/user/extremezone/'
p262
sg8
S'extremezone'
p263
sg10
S'magnet:?xt=urn:btih:5c077c605b478d7f3ace34da4879d7c6c274810a&dn=Cowboys+and+Aliens+%282011%29+DVDRip+XviD-MAX&tr=udp%3A%2F%2Ftracker.openbittorrent.com%3A80&tr=udp%3A%2F%2Ftracker.publicbt.com%3A80&tr=udp%3A%2F%2Ftracker.ccc.de%3A80'
p264
sg12
S'6828300'
p265
sa(dp266
g2
S'/torrent/6754327/The_Hangover_2_(2011)_DVDRip_XviD-MAX'
p267
sg4
S'The_Hangover_2_(2011)_DVDRip_XviD-MAX'
p268
sg6
S'/user/extremezone/'
p269
sg8
S'extremezone'
p270
sg10
S'magnet:?xt=urn:btih:9bda9cb9b94b0663ea83348b47ec53e3c08e69f0&dn=The+Hangover+2+%282011%29+DVDRip+XviD-MAX&tr=udp%3A%2F%2Ftracker.openbittorrent.com%3A80&tr=udp%3A%2F%2Ftracker.publicbt.com%3A80&tr=udp%3A%2F%2Ftracker.ccc.de%3A80'
p271
sg12
S'6754327'
p272
sa(dp273
g2
S'/torrent/7033014/Glee.S03E13.HDTV.XviD-LOL.[VTV].avi'
p274
sg4
S'Glee.S03E13.HDTV.XviD-LOL.[VTV].avi'
p275
sg6
S'/user/VTV/'
p276
sg8
S'VTV'
p277
sg10
S'magnet:?xt=urn:btih:30cb077d8578c1b5bf81d021a047ba5755ca57f9&dn=Glee.S03E13.HDTV.XviD-LOL.%5BVTV%5D.avi&tr=udp%3A%2F%2Ftracker.openbittorrent.com%3A80&tr=udp%3A%2F%2Ftracker.publicbt.com%3A80&tr=udp%3A%2F%2Ftracker.ccc.de%3A80'
p278
sg12
S'7033014'
p279
sa(dp280
g2
S'/torrent/7029714/Gossip.Girl.S05E15.HDTV.XviD-LOL.[VTV].avi'
p281
sg4
S'Gossip.Girl.S05E15.HDTV.XviD-LOL.[VTV].avi'
p282
sg6
S'/user/VTV/'
p283
sg8
S'VTV'
p284
sg10
S'magnet:?xt=urn:btih:dde68ab3c83e34af4288bf626b0d1f35bac72a91&dn=Gossip.Girl.S05E15.HDTV.XviD-LOL.%5BVTV%5D.avi&tr=udp%3A%2F%2Ftracker.openbittorrent.com%3A80&tr=udp%3A%2F%2Ftracker.publicbt.com%3A80&tr=udp%3A%2F%2Ftracker.ccc.de%3A80'
p285
sg12
S'7029714'
p286
sa(dp287
g2
S'/torrent/6892152/Moneyball_2011_BRRip_XviD-FTW'
p288
sg4
S'Moneyball_2011_BRRip_XviD-FTW'
p289
sg6
S'/user/HeroMaster/'
p290
sg8
S'HeroMaster'
p291
sg10
S'magnet:?xt=urn:btih:43511e94f986524a254b52b2ef8818d0a34f69a0&dn=Moneyball+2011+BRRip+XviD-FTW&tr=udp%3A%2F%2Ftracker.openbittorrent.com%3A80&tr=udp%3A%2F%2Ftracker.publicbt.com%3A80&tr=udp%3A%2F%2Ftracker.ccc.de%3A80'
p292
sg12
S'6892152'
p293
sa(dp294
g2
S'/torrent/6451529/Adele_-_21_(Limited_Edition_CD-Rip__320kbps_Bonus_Cov)_[PRIME]'
p295
sg4
S'Adele_-_21_(Limited_Edition_CD-Rip__320kbps_Bonus_Cov)_[PRIME]'
p296
sg6
S'/user/L3G3ND/'
p297
sg8
S'L3G3ND'
p298
sg10
S'magnet:?xt=urn:btih:8f8d94e8128007364c19d826671e348bc2215fff&dn=Adele+-+21+%28Limited+Edition+CD-Rip+%40320kbps+Bonus%2BCov%29+%5BPRIME%5D&tr=udp%3A%2F%2Ftracker.openbittorrent.com%3A80&tr=udp%3A%2F%2Ftracker.publicbt.com%3A80&tr=udp%3A%2F%2Ftracker.ccc.de%3A80'
p299
sg12
S'6451529'
p300
sa(dp301
g2
S'/torrent/6986026/The_Twilight_Saga_Breaking_Dawn-Part1[2011]BRRip_XviD-ETRG'
p302
sg4
S'The_Twilight_Saga_Breaking_Dawn-Part1[2011]BRRip_XviD-ETRG'
p303
sg6
S'/user/SaM/'
p304
sg8
S'SaM'
p305
sg10
S'magnet:?xt=urn:btih:dab0c21f38428967dd897bc64e0a6f643cf02844&dn=The+Twilight+Saga+Breaking+Dawn-Part1%5B2011%5DBRRip+XviD-ETRG&tr=udp%3A%2F%2Ftracker.openbittorrent.com%3A80&tr=udp%3A%2F%2Ftracker.publicbt.com%3A80&tr=udp%3A%2F%2Ftracker.ccc.de%3A80'
p306
sg12
S'6986026'
p307
sa(dp308
g2
S'/torrent/6880748/Contagion_2011_DVDRip_XviD-AMIABLE'
p309
sg4
S'Contagion_2011_DVDRip_XviD-AMIABLE'
p310
sg6
S'/user/extremezone/'
p311
sg8
S'extremezone'
p312
sg10
S'magnet:?xt=urn:btih:188a775d889198c86071829f9cb0829fa1bf9481&dn=Contagion+2011+DVDRip+XviD-AMIABLE&tr=udp%3A%2F%2Ftracker.openbittorrent.com%3A80&tr=udp%3A%2F%2Ftracker.publicbt.com%3A80&tr=udp%3A%2F%2Ftracker.ccc.de%3A80'
p313
sg12
S'6880748'
p314
sa(dp315
g2
S'/torrent/6968988/A_Very_Harold_And_Kumar_Christmas_DVDRip_XviD-DiAMOND'
p316
sg4
S'A_Very_Harold_And_Kumar_Christmas_DVDRip_XviD-DiAMOND'
p317
sg6
S'/user/boobsman/'
p318
sg8
S'boobsman'
p319
sg10
S'magnet:?xt=urn:btih:a5a0e5f7c5265c817c6b0a4029e37ddd4eb222d5&dn=A+Very+Harold+And+Kumar+Christmas+DVDRip+XviD-DiAMOND&tr=udp%3A%2F%2Ftracker.openbittorrent.com%3A80&tr=udp%3A%2F%2Ftracker.publicbt.com%3A80&tr=udp%3A%2F%2Ftracker.ccc.de%3A80'
p320
sg12
S'6968988'
p321
sa(dp322
g2
S'/torrent/6796866/Conan_the_Barbarian_(2011)_DVDRip_XviD-MAX'
p323
sg4
S'Conan_the_Barbarian_(2011)_DVDRip_XviD-MAX'
p324
sg6
S'/user/extremezone/'
p325
sg8
S'extremezone'
p326
sg10
S'magnet:?xt=urn:btih:0d7a2a89bbfd09360dec265c65530203db5027ca&dn=Conan+the+Barbarian+%282011%29+DVDRip+XviD-MAX&tr=udp%3A%2F%2Ftracker.openbittorrent.com%3A80&tr=udp%3A%2F%2Ftracker.publicbt.com%3A80&tr=udp%3A%2F%2Ftracker.ccc.de%3A80'
p327
sg12
S'6796866'
p328
sa(dp329
g2
S'/torrent/6869314/Warrior_DVDRip_XviD-DiAMOND'
p330
sg4
S'Warrior_DVDRip_XviD-DiAMOND'
p331
sg6
S'/user/extremezone/'
p332
sg8
S'extremezone'
p333
sg10
S'magnet:?xt=urn:btih:ab00fd60d4ac7116ca8d2ea7a1d97b9d0cf480c2&dn=Warrior+DVDRip+XviD-DiAMOND&tr=udp%3A%2F%2Ftracker.openbittorrent.com%3A80&tr=udp%3A%2F%2Ftracker.publicbt.com%3A80&tr=udp%3A%2F%2Ftracker.ccc.de%3A80'
p334
sg12
S'6869314'
p335
sa(dp336
g2
S'/torrent/6694883/Horrible_Bosses_2011_DVDRip_XviD-AMIABLE'
p337
sg4
S'Horrible_Bosses_2011_DVDRip_XviD-AMIABLE'
p338
sg6
S'/user/extremezone/'
p339
sg8
S'extremezone'
p340
sg10
S'magnet:?xt=urn:btih:02c7097f4f8a284367d1e36e5b08502f802e5fef&dn=Horrible+Bosses+2011+DVDRip+XviD-AMIABLE&tr=udp%3A%2F%2Ftracker.openbittorrent.com%3A80&tr=udp%3A%2F%2Ftracker.publicbt.com%3A80&tr=udp%3A%2F%2Ftracker.ccc.de%3A80'
p341
sg12
S'6694883'
p342
sa(dp343
g2
S'/torrent/7020300/Tower.Heist.2011.720p.BluRay.x264-AMIABLE'
p344
sg4
S'Tower.Heist.2011.720p.BluRay.x264-AMIABLE'
p345
sg6
S'/user/BOZX/'
p346
sg8
S'BOZX'
p347
sg10
S'magnet:?xt=urn:btih:05e86a40f088fcbd9ddaad4a826b0b70658ee19f&dn=Tower.Heist.2011.720p.BluRay.x264-AMIABLE&tr=udp%3A%2F%2Ftracker.openbittorrent.com%3A80&tr=udp%3A%2F%2Ftracker.publicbt.com%3A80&tr=udp%3A%2F%2Ftracker.ccc.de%3A80'
p348
sg12
S'7020300'
p349
sa(dp350
g2
S'/torrent/7029784/Two_and_a_Half_Men_S09E16_HDTV_XviD-LOL_[eztv]'
p351
sg4
S'Two_and_a_Half_Men_S09E16_HDTV_XviD-LOL_[eztv]'
p352
sg6
S'/user/eztv/'
p353
sg8
S'eztv'
p354
sg10
S'magnet:?xt=urn:btih:ab982fe52bcbc769909412a8113fdcc89c7218ee&dn=Two+and+a+Half+Men+S09E16+HDTV+XviD-LOL+%5Beztv%5D&tr=udp%3A%2F%2Ftracker.openbittorrent.com%3A80&tr=udp%3A%2F%2Ftracker.publicbt.com%3A80&tr=udp%3A%2F%2Ftracker.ccc.de%3A80'
p355
sg12
S'7029784'
p356
sa(dp357
g2
S'/torrent/6697947/Transformers_3_Dark_of_the_Moon_(2011)_DVDRip_XviD-MAX'
p358
sg4
S'Transformers_3_Dark_of_the_Moon_(2011)_DVDRip_XviD-MAX'
p359
sg6
S'/user/extremezone/'
p360
sg8
S'extremezone'
p361
sg10
S'magnet:?xt=urn:btih:7782b9f9646066cfd2f3f273e63a29c3e9b06d12&dn=Transformers+3+Dark+of+the+Moon+%282011%29+DVDRip+XviD-MAX&tr=udp%3A%2F%2Ftracker.openbittorrent.com%3A80&tr=udp%3A%2F%2Ftracker.publicbt.com%3A80&tr=udp%3A%2F%2Ftracker.ccc.de%3A80'
p362
sg12
S'6697947'
p363
sa(dp364
g2
S'/torrent/6945349/Johnny_English_Reborn_(2011)_DVDRip_XviD-MAX'
p365
sg4
S'Johnny_English_Reborn_(2011)_DVDRip_XviD-MAX'
p366
sg6
S'/user/extremezone/'
p367
sg8
S'extremezone'
p368
sg10
S'magnet:?xt=urn:btih:58c549640bf5db8068fd0b44113363f9f2ebdd66&dn=Johnny+English+Reborn+%282011%29+DVDRip+XviD-MAX&tr=udp%3A%2F%2Ftracker.openbittorrent.com%3A80&tr=udp%3A%2F%2Ftracker.publicbt.com%3A80&tr=udp%3A%2F%2Ftracker.ccc.de%3A80'
p369
sg12
S'6945349'
p370
sa(dp371
g2
S'/torrent/6802191/Gossip.Girl.S05E06.HDTV.XviD-ASAP.[VTV].avi'
p372
sg4
S'Gossip.Girl.S05E06.HDTV.XviD-ASAP.[VTV].avi'
p373
sg6
S'/user/VTV/'
p374
sg8
S'VTV'
p375
sg10
S'magnet:?xt=urn:btih:d96143d67b3781626f5ed2f4981ffe466d13fa74&dn=Gossip.Girl.S05E06.HDTV.XviD-ASAP.%5BVTV%5D.avi&tr=udp%3A%2F%2Ftracker.openbittorrent.com%3A80&tr=udp%3A%2F%2Ftracker.publicbt.com%3A80&tr=udp%3A%2F%2Ftracker.ccc.de%3A80'
p376
sg12
S'6802191'
p377
sa(dp378
g2
S'/torrent/7023473/J.Edgar_2011_720p_BluRay_x264-SPARKS'
p379
sg4
S'J.Edgar_2011_720p_BluRay_x264-SPARKS'
p380
sg6
S'/user/MScope40/'
p381
sg8
S'MScope40'
p382
sg10
S'magnet:?xt=urn:btih:680c01c6d44a01964499757089cd213f3159f45d&dn=J.Edgar+2011+720p+BluRay+x264-SPARKS&tr=udp%3A%2F%2Ftracker.openbittorrent.com%3A80&tr=udp%3A%2F%2Ftracker.publicbt.com%3A80&tr=udp%3A%2F%2Ftracker.ccc.de%3A80'
p383
sg12
S'7023473'
p384
sa(dp385
g2
S'/torrent/7034948/Gang_Of_Roses_Next_Generation_2012_DVDRip_Xvid_UnKnOwN'
p386
sg4
S'Gang_Of_Roses_Next_Generation_2012_DVDRip_Xvid_UnKnOwN'
p387
sg6
S'/user/LegendET/'
p388
sg8
S'LegendET'
p389
sg10
S'magnet:?xt=urn:btih:ad6a753f7d2310503b9502dec798c6f291928153&dn=Gang+Of+Roses+Next+Generation+2012+DVDRip+Xvid+UnKnOwN&tr=udp%3A%2F%2Ftracker.openbittorrent.com%3A80&tr=udp%3A%2F%2Ftracker.publicbt.com%3A80&tr=udp%3A%2F%2Ftracker.ccc.de%3A80'
p390
sg12
S'7034948'
p391
sa(dp392
g2
S'/torrent/6743304/Captain_America_The_First_Avenger_(2011)_DVDRip_XviD-MAX'
p393
sg4
S'Captain_America_The_First_Avenger_(2011)_DVDRip_XviD-MAX'
p394
sg6
S'/user/extremezone/'
p395
sg8
S'extremezone'
p396
sg10
S'magnet:?xt=urn:btih:6e7cd0025d28463a70818e5209df96621a85acaa&dn=Captain+America+The+First+Avenger+%282011%29+DVDRip+XviD-MAX&tr=udp%3A%2F%2Ftracker.openbittorrent.com%3A80&tr=udp%3A%2F%2Ftracker.publicbt.com%3A80&tr=udp%3A%2F%2Ftracker.ccc.de%3A80'
p397
sg12
S'6743304'
p398
sa(dp399
g2
S'/torrent/7037873/The_Vampire_Diaries_S03E15_HDTV_XviD-2HD_[eztv]'
p400
sg4
S'The_Vampire_Diaries_S03E15_HDTV_XviD-2HD_[eztv]'
p401
sg6
S'/user/eztv/'
p402
sg8
S'eztv'
p403
sg10
S'magnet:?xt=urn:btih:e55c31febc942f1bbbb9d2817068640ceae73f3e&dn=The+Vampire+Diaries+S03E15+HDTV+XviD-2HD+%5Beztv%5D&tr=udp%3A%2F%2Ftracker.openbittorrent.com%3A80&tr=udp%3A%2F%2Ftracker.publicbt.com%3A80&tr=udp%3A%2F%2Ftracker.ccc.de%3A80'
p404
sg12
S'7037873'
p405
sa(dp406
g2
S'/torrent/7015961/Kingdoms_of_Amalur_Reckoning-SKIDROW'
p407
sg4
S'Kingdoms_of_Amalur_Reckoning-SKIDROW'
p408
sg6
S'/user/extremezone/'
p409
sg8
S'extremezone'
p410
sg10
S'magnet:?xt=urn:btih:4cec68aabbb1c93a11ea707594e5755939f73f79&dn=Kingdoms+of+Amalur+Reckoning-SKIDROW&tr=udp%3A%2F%2Ftracker.openbittorrent.com%3A80&tr=udp%3A%2F%2Ftracker.publicbt.com%3A80&tr=udp%3A%2F%2Ftracker.ccc.de%3A80'
p411
sg12
S'7015961'
p412
sa(dp413
g2
S'/torrent/7033784/Immortals.2011.RETAIL.720p.BluRay.x264.DTS-HDChina'
p414
sg4
S'Immortals.2011.RETAIL.720p.BluRay.x264.DTS-HDChina'
p415
sg6
S'/user/BOZX/'
p416
sg8
S'BOZX'
p417
sg10
S'magnet:?xt=urn:btih:238471b8024792d1d9de6849af08cab6f381dac0&dn=Immortals.2011.RETAIL.720p.BluRay.x264.DTS-HDChina&tr=udp%3A%2F%2Ftracker.openbittorrent.com%3A80&tr=udp%3A%2F%2Ftracker.publicbt.com%3A80&tr=udp%3A%2F%2Ftracker.ccc.de%3A80'
p418
sg12
S'7033784'
p419
sa(dp420
g2
S'/torrent/6341895/ADOBE_PHOTOSHOP_CS5.1_EXTENDED_EDITION_[thethingy]_'
p421
sg4
S'ADOBE_PHOTOSHOP_CS5.1_EXTENDED_EDITION_[thethingy]_'
p422
sg6
S'/user/thethingy/'
p423
sg8
S'thethingy'
p424
sg10
S'magnet:?xt=urn:btih:1bf228a96d276938d0d0b890af93680e3eebd0f7&dn=ADOBE+PHOTOSHOP+CS5.1+EXTENDED+EDITION+%5Bthethingy%5D+&tr=udp%3A%2F%2Ftracker.openbittorrent.com%3A80&tr=udp%3A%2F%2Ftracker.publicbt.com%3A80&tr=udp%3A%2F%2Ftracker.ccc.de%3A80'
p425
sg12
S'6341895'
p426
sa(dp427
g2
S'/torrent/6700250/Drive_2011_SCR_XviD-playXD'
p428
sg4
S'Drive_2011_SCR_XviD-playXD'
p429
sg6
S'/user/extremezone/'
p430
sg8
S'extremezone'
p431
sg10
S'magnet:?xt=urn:btih:3f1b86f00dc9462b5f85d1adcb32ec138320edf3&dn=Drive+2011+SCR+XviD-playXD&tr=udp%3A%2F%2Ftracker.openbittorrent.com%3A80&tr=udp%3A%2F%2Ftracker.publicbt.com%3A80&tr=udp%3A%2F%2Ftracker.ccc.de%3A80'
p432
sg12
S'6700250'
p433
sa(dp434
S'detaillLink'
p435
S'/torrent/7036110/Justice.League.Doom.2012.BRRip.XviD.Ac3.Feel-Free'
p436
sg4
S'Justice.League.Doom.2012.BRRip.XviD.Ac3.Feel-Free'
p437
sg6
S'/user/neon'
p438
sg8
S'user'
p439
sg10
S'magnet:?xt=urn:btih:bd90874fde0630b50f5dac2565bb0ef511109e14&dn=Justice.League.Doom.2012.BRRip.XviD.Ac3.Feel-Free&tr=udp%3A%2F%2Ftracker.openbittorrent.com%3A80&tr=udp%3A%2F%2Ftracker.publicbt.com%3A80&tr=udp%3A%2F%2Ftracker.ccc.de%3A80'
p440
sg12
S'7036110'
p441
sa(dp442
g2
S'/torrent/7035417/CSI_S12E14_HDTV_XviD-LOL_[eztv]'
p443
sg4
S'CSI_S12E14_HDTV_XviD-LOL_[eztv]'
p444
sg6
S'/user/eztv/'
p445
sg8
S'eztv'
p446
sg10
S'magnet:?xt=urn:btih:05f673c59224894e122c78c618d303f1fe29a146&dn=CSI+S12E14+HDTV+XviD-LOL+%5Beztv%5D&tr=udp%3A%2F%2Ftracker.openbittorrent.com%3A80&tr=udp%3A%2F%2Ftracker.publicbt.com%3A80&tr=udp%3A%2F%2Ftracker.ccc.de%3A80'
p447
sg12
S'7035417'
p448
sa(dp449
g2
S'/torrent/7026876/Safe_House_2012_CAM_READNFO_XviD-ZOMBiES'
p450
sg4
S'Safe_House_2012_CAM_READNFO_XviD-ZOMBiES'
p451
sg6
S'/user/Hackulus/'
p452
sg8
S'Hackulus'
p453
sg10
S'magnet:?xt=urn:btih:4849b6ed7448a1d82a7f5b302f3fb33faaa19eed&dn=Safe+House+2012+CAM+READNFO+XviD-ZOMBiES&tr=udp%3A%2F%2Ftracker.openbittorrent.com%3A80&tr=udp%3A%2F%2Ftracker.publicbt.com%3A80&tr=udp%3A%2F%2Ftracker.ccc.de%3A80'
p454
sg12
S'7026876'
p455
sa(dp456
g2
S'/torrent/7022384/Puss.In.Boots.2011.720p.BluRay.x264.DTS-HDChina'
p457
sg4
S'Puss.In.Boots.2011.720p.BluRay.x264.DTS-HDChina'
p458
sg6
S'/user/BOZX/'
p459
sg8
S'BOZX'
p460
sg10
S'magnet:?xt=urn:btih:81fab2a83c0c44b2fa7fc0115aa6242c3e0a3670&dn=Puss.In.Boots.2011.720p.BluRay.x264.DTS-HDChina&tr=udp%3A%2F%2Ftracker.openbittorrent.com%3A80&tr=udp%3A%2F%2Ftracker.publicbt.com%3A80&tr=udp%3A%2F%2Ftracker.ccc.de%3A80'
p461
sg12
S'7022384'
p462
sa(dp463
g2
S'/torrent/6614245/Fast_and_Furious_5_Fast_Five_(2011)_DVDRip_XviD-MAX'
p464
sg4
S'Fast_and_Furious_5_Fast_Five_(2011)_DVDRip_XviD-MAX'
p465
sg6
S'/user/extremezone/'
p466
sg8
S'extremezone'
p467
sg10
S'magnet:?xt=urn:btih:ce1fc50bffb09962be8f3c49478cbeb65e2afe0f&dn=Fast+and+Furious+5+Fast+Five+%282011%29+DVDRip+XviD-MAX&tr=udp%3A%2F%2Ftracker.openbittorrent.com%3A80&tr=udp%3A%2F%2Ftracker.publicbt.com%3A80&tr=udp%3A%2F%2Ftracker.ccc.de%3A80'
p468
sg12
S'6614245'
p469
sa(dp470
g2
S'/torrent/7007163/The_Iron_Lady_2011_DVDRip_XviD-TARGET'
p471
sg4
S'The_Iron_Lady_2011_DVDRip_XviD-TARGET'
p472
sg6
S'/user/extremezone/'
p473
sg8
S'extremezone'
p474
sg10
S'magnet:?xt=urn:btih:946a0a468351cf21f241b77fcff7e4222f8e148c&dn=The+Iron+Lady+2011+DVDRip+XviD-TARGET&tr=udp%3A%2F%2Ftracker.openbittorrent.com%3A80&tr=udp%3A%2F%2Ftracker.publicbt.com%3A80&tr=udp%3A%2F%2Ftracker.ccc.de%3A80'
p475
sg12
S'7007163'
p476
sa(dp477
g2
S'/torrent/6804579/Glee_S03E05_HDTV_XviD-LOL[ettv]'
p478
sg4
S'Glee_S03E05_HDTV_XviD-LOL[ettv]'
p479
sg6
S'/user/ettv/'
p480
sg8
S'ettv'
p481
sg10
S'magnet:?xt=urn:btih:f79bfffec4279d71bc9d690596228eb06a5eb199&dn=Glee+S03E05+HDTV+XviD-LOL%5Bettv%5D&tr=udp%3A%2F%2Ftracker.openbittorrent.com%3A80&tr=udp%3A%2F%2Ftracker.publicbt.com%3A80&tr=udp%3A%2F%2Ftracker.ccc.de%3A80'
p482
sg12
S'6804579'
p483
sa(dp484
g2
S'/torrent/7024088/Spartacus_S02E03_HDTV_XviD-ASAP[ettv]'
p485
sg4
S'Spartacus_S02E03_HDTV_XviD-ASAP[ettv]'
p486
sg6
S'/user/ettv/'
p487
sg8
S'ettv'
p488
sg10
S'magnet:?xt=urn:btih:a439a10aef308a6d2cbffee4772d43b2f5452aac&dn=Spartacus+S02E03+HDTV+XviD-ASAP%5Bettv%5D&tr=udp%3A%2F%2Ftracker.openbittorrent.com%3A80&tr=udp%3A%2F%2Ftracker.publicbt.com%3A80&tr=udp%3A%2F%2Ftracker.ccc.de%3A80'
p489
sg12
S'7024088'
p490
sa(dp491
g2
S'/torrent/6247246/Adele_-_Discography_(Complete)_[2008_-_2011]'
p492
sg4
S'Adele_-_Discography_(Complete)_[2008_-_2011]'
p493
sg6
S'/user/locobot12/'
p494
sg8
S'locobot12'
p495
sg10
S'magnet:?xt=urn:btih:a05fe4cf806adff0963977feb8f8fa5c40c1b7a2&dn=Adele+-+Discography+%28Complete%29+%5B2008+-+2011%5D&tr=udp%3A%2F%2Ftracker.openbittorrent.com%3A80&tr=udp%3A%2F%2Ftracker.publicbt.com%3A80&tr=udp%3A%2F%2Ftracker.ccc.de%3A80'
p496
sg12
S'6247246'
p497
sa(dp498
g2
S'/torrent/6937347/Tinker_Tailor_Soldier_Spy_2011_R5_DVDRip_XviD_AC3-26K'
p499
sg4
S'Tinker_Tailor_Soldier_Spy_2011_R5_DVDRip_XviD_AC3-26K'
p500
sg6
S'/user/froggie100/'
p501
sg8
S'froggie100'
p502
sg10
S'magnet:?xt=urn:btih:7270c0b12de6b3807545478295851cb0e4ce2071&dn=Tinker+Tailor+Soldier+Spy+2011+R5+DVDRip+XviD+AC3-26K&tr=udp%3A%2F%2Ftracker.openbittorrent.com%3A80&tr=udp%3A%2F%2Ftracker.publicbt.com%3A80&tr=udp%3A%2F%2Ftracker.ccc.de%3A80'
p503
sg12
S'6937347'
p504
sa(dp505
g2
S'/torrent/7033027/New.Girl.S01E13.HDTV.XviD-LOL.[VTV].avi'
p506
sg4
S'New.Girl.S01E13.HDTV.XviD-LOL.[VTV].avi'
p507
sg6
S'/user/VTV/'
p508
sg8
S'VTV'
p509
sg10
S'magnet:?xt=urn:btih:ad5a39c8c0380b4698011576d0be20164452fa0f&dn=New.Girl.S01E13.HDTV.XviD-LOL.%5BVTV%5D.avi&tr=udp%3A%2F%2Ftracker.openbittorrent.com%3A80&tr=udp%3A%2F%2Ftracker.publicbt.com%3A80&tr=udp%3A%2F%2Ftracker.ccc.de%3A80'
p510
sg12
S'7033027'
p511
sa(dp512
g2
S'/torrent/6744206/Crazy_Stupid_Love_DVDRip_XviD-TWiZTED'
p513
sg4
S'Crazy_Stupid_Love_DVDRip_XviD-TWiZTED'
p514
sg6
S'/user/extremezone/'
p515
sg8
S'extremezone'
p516
sg10
S'magnet:?xt=urn:btih:55799a4d83d9bfc0f964bc8b55dfae5daa104cef&dn=Crazy+Stupid+Love+DVDRip+XviD-TWiZTED&tr=udp%3A%2F%2Ftracker.openbittorrent.com%3A80&tr=udp%3A%2F%2Ftracker.publicbt.com%3A80&tr=udp%3A%2F%2Ftracker.ccc.de%3A80'
p517
sg12
S'6744206'
p518
sa(dp519
g2
S'/torrent/6988119/The_Big_Bang_Theory_S05E14_HDTV_XviD-LOL_[eztv]'
p520
sg4
S'The_Big_Bang_Theory_S05E14_HDTV_XviD-LOL_[eztv]'
p521
sg6
S'/user/eztv/'
p522
sg8
S'eztv'
p523
sg10
S'magnet:?xt=urn:btih:2cef1fd4af29c17acbc41d6e1828610df30b5b8d&dn=The+Big+Bang+Theory+S05E14+HDTV+XviD-LOL+%5Beztv%5D&tr=udp%3A%2F%2Ftracker.openbittorrent.com%3A80&tr=udp%3A%2F%2Ftracker.publicbt.com%3A80&tr=udp%3A%2F%2Ftracker.ccc.de%3A80'
p524
sg12
S'6988119'
p525
sa(dp526
g2
S'/torrent/7011621/Chronicle_2012_TS_XviD_-_MiSTERE'
p527
sg4
S'Chronicle_2012_TS_XviD_-_MiSTERE'
p528
sg6
S'/user/Hackulus/'
p529
sg8
S'Hackulus'
p530
sg10
S'magnet:?xt=urn:btih:a96e2aeea77904b83e6ea97ed748ee16d9040c4f&dn=Chronicle+2012+TS+XviD+-+MiSTERE&tr=udp%3A%2F%2Ftracker.openbittorrent.com%3A80&tr=udp%3A%2F%2Ftracker.publicbt.com%3A80&tr=udp%3A%2F%2Ftracker.ccc.de%3A80'
p531
sg12
S'7011621'
p532
sa(dp533
g2
S'/torrent/6893271/Mission.Impossible.4.Ghost.Protocol.2011.CAM.READNFO.XviD-BiDA'
p534
sg4
S'Mission.Impossible.4.Ghost.Protocol.2011.CAM.READNFO.XviD-BiDA'
p535
sg6
S'/user/.BONE./'
p536
sg8
S'.BONE.'
p537
sg10
S'magnet:?xt=urn:btih:308b0b2e77cba28f118bbff479ec49e17033024e&dn=Mission.Impossible.4.Ghost.Protocol.2011.CAM.READNFO.XviD-BiDA&tr=udp%3A%2F%2Ftracker.openbittorrent.com%3A80&tr=udp%3A%2F%2Ftracker.publicbt.com%3A80&tr=udp%3A%2F%2Ftracker.ccc.de%3A80'
p538
sg12
S'6893271'
p539
sa(dp540
g2
S'/torrent/7021180/The_Vampire_Diaries_S03E14_HDTV_XviD-LOL_[eztv]'
p541
sg4
S'The_Vampire_Diaries_S03E14_HDTV_XviD-LOL_[eztv]'
p542
sg6
S'/user/eztv/'
p543
sg8
S'eztv'
p544
sg10
S'magnet:?xt=urn:btih:5bb908ec040a24f6c71736ce172be2d8a2aa71dd&dn=The+Vampire+Diaries+S03E14+HDTV+XviD-LOL+%5Beztv%5D&tr=udp%3A%2F%2Ftracker.openbittorrent.com%3A80&tr=udp%3A%2F%2Ftracker.publicbt.com%3A80&tr=udp%3A%2F%2Ftracker.ccc.de%3A80'
p545
sg12
S'7021180'
p546
sa(dp547
g2
S'/torrent/7024130/Fringe_S04E12_HDTV_XviD-LOL_[eztv]'
p548
sg4
S'Fringe_S04E12_HDTV_XviD-LOL_[eztv]'
p549
sg6
S'/user/eztv/'
p550
sg8
S'eztv'
p551
sg10
S'magnet:?xt=urn:btih:8c1f65f61ce66c2b2497c08ddc52643d2a891f2b&dn=Fringe+S04E12+HDTV+XviD-LOL+%5Beztv%5D&tr=udp%3A%2F%2Ftracker.openbittorrent.com%3A80&tr=udp%3A%2F%2Ftracker.publicbt.com%3A80&tr=udp%3A%2F%2Ftracker.ccc.de%3A80'
p552
sg12
S'7024130'
p553
sa(dp554
g2
S'/torrent/6823944/The_Help_DVDRip_XviD-DiAMOND'
p555
sg4
S'The_Help_DVDRip_XviD-DiAMOND'
p556
sg6
S'/user/.BONE./'
p557
sg8
S'.BONE.'
p558
sg10
S'magnet:?xt=urn:btih:3def99d1f812f937bdd114e0d2107551bce9ac41&dn=The+Help+DVDRip+XviD-DiAMOND&tr=udp%3A%2F%2Ftracker.openbittorrent.com%3A80&tr=udp%3A%2F%2Ftracker.publicbt.com%3A80&tr=udp%3A%2F%2Ftracker.ccc.de%3A80'
p559
sg12
S'6823944'
p560
sa(dp561
g2
S'/torrent/7020724/The_Darkness_II-SKIDROW'
p562
sg4
S'The_Darkness_II-SKIDROW'
p563
sg6
S'/user/extremezone/'
p564
sg8
S'extremezone'
p565
sg10
S'magnet:?xt=urn:btih:a97ddfdcf4d21700b63a4b811e2618f9b139506b&dn=The+Darkness+II-SKIDROW&tr=udp%3A%2F%2Ftracker.openbittorrent.com%3A80&tr=udp%3A%2F%2Ftracker.publicbt.com%3A80&tr=udp%3A%2F%2Ftracker.ccc.de%3A80'
p566
sg12
S'7020724'
p567
sa(dp568
g2
S'/torrent/6778404/Wale_-_Ambition_[2011_Album]'
p569
sg4
S'Wale_-_Ambition_[2011_Album]'
p570
sg6
S'/user/theLEAK/'
p571
sg8
S'theLEAK'
p572
sg10
S'magnet:?xt=urn:btih:aeff6f5a35f4a41d599205dee91f1910954230c5&dn=Wale+-+Ambition+%5B2011+Album%5D&tr=udp%3A%2F%2Ftracker.openbittorrent.com%3A80&tr=udp%3A%2F%2Ftracker.publicbt.com%3A80&tr=udp%3A%2F%2Ftracker.ccc.de%3A80'
p573
sg12
S'6778404'
p574
sa(dp575
g2
S'/torrent/6804685/Sons_of_Anarchy_S04E10_HDTV_XviD-ASAP[ettv]'
p576
sg4
S'Sons_of_Anarchy_S04E10_HDTV_XviD-ASAP[ettv]'
p577
sg6
S'/user/ettv/'
p578
sg8
S'ettv'
p579
sg10
S'magnet:?xt=urn:btih:4336de40d95d1e1c0909aa5732b96f87c84e6d77&dn=Sons+of+Anarchy+S04E10+HDTV+XviD-ASAP%5Bettv%5D&tr=udp%3A%2F%2Ftracker.openbittorrent.com%3A80&tr=udp%3A%2F%2Ftracker.publicbt.com%3A80&tr=udp%3A%2F%2Ftracker.ccc.de%3A80'
p580
sg12
S'6804685'
p581
sa(dp582
g2
S'/torrent/6484010/Big_Sean_-_Finally_Famous_(Full_Album)_[Silver_RG]_-_PR_M3'
p583
sg4
S'Big_Sean_-_Finally_Famous_(Full_Album)_[Silver_RG]_-_PR_M3'
p584
sg6
S'/user/L3G3ND/'
p585
sg8
S'L3G3ND'
p586
sg10
S'magnet:?xt=urn:btih:0fc3d3cd170fdba7b39e3fc22299c449f8ade05f&dn=Big+Sean+-+Finally+Famous+%28Full+Album%29+%5BSilver+RG%5D+-+PR%21M3&tr=udp%3A%2F%2Ftracker.openbittorrent.com%3A80&tr=udp%3A%2F%2Ftracker.publicbt.com%3A80&tr=udp%3A%2F%2Ftracker.ccc.de%3A80'
p587
sg12
S'6484010'
p588
sa(dp589
g2
S'/torrent/7027182/Californication_S05E06_HDTV_XviD-ASAP_[eztv]'
p590
sg4
S'Californication_S05E06_HDTV_XviD-ASAP_[eztv]'
p591
sg6
S'/user/eztv/'
p592
sg8
S'eztv'
p593
sg10
S'magnet:?xt=urn:btih:9bde5a9d511e06abdcae5b2e70c430cbb509a20b&dn=Californication+S05E06+HDTV+XviD-ASAP+%5Beztv%5D&tr=udp%3A%2F%2Ftracker.openbittorrent.com%3A80&tr=udp%3A%2F%2Ftracker.publicbt.com%3A80&tr=udp%3A%2F%2Ftracker.ccc.de%3A80'
p594
sg12
S'7027182'
p595
sa(dp596
g2
S'/torrent/6627351/Friends_with_Benefits_2011_R5_LiNE_READNFO_XViD-IMAGiNE'
p597
sg4
S'Friends_with_Benefits_2011_R5_LiNE_READNFO_XViD-IMAGiNE'
p598
sg6
S'/user/extremezone/'
p599
sg8
S'extremezone'
p600
sg10
S'magnet:?xt=urn:btih:a175d536d1c69a00d0bf0b071b4a5f092e83713b&dn=Friends+with+Benefits+2011+R5+LiNE+READNFO+XViD-IMAGiNE&tr=udp%3A%2F%2Ftracker.openbittorrent.com%3A80&tr=udp%3A%2F%2Ftracker.publicbt.com%3A80&tr=udp%3A%2F%2Ftracker.ccc.de%3A80'
p601
sg12
S'6627351'
p602
sa(dp603
g2
S'/torrent/7014989/The_Big_Bang_Theory_S05E15_HDTV_XviD-LOL_'
p604
sg4
S'The_Big_Bang_Theory_S05E15_HDTV_XviD-LOL_'
p605
sg6
S'/user/neon/'
p606
sg8
S'neon'
p607
sg10
S'magnet:?xt=urn:btih:0d81e8687ca29f76f62d64b907510ed613a4beff&dn=The+Big+Bang+Theory+S05E15+HDTV+XviD-LOL+&tr=udp%3A%2F%2Ftracker.openbittorrent.com%3A80&tr=udp%3A%2F%2Ftracker.publicbt.com%3A80&tr=udp%3A%2F%2Ftracker.ccc.de%3A80'
p608
sg12
S'7014989'
p609
sa(dp610
g2
S'/torrent/7007027/Footloose.2011.DVDRip.XviD-_PADDO'
p611
sg4
S'Footloose.2011.DVDRip.XviD-_PADDO'
p612
sg6
S'/user/LegendET/'
p613
sg8
S'LegendET'
p614
sg10
S'magnet:?xt=urn:btih:749ac8e7a7d0dd46bb0417a9dfb38c59d2600e15&dn=Footloose.2011.DVDRip.XviD-+PADDO&tr=udp%3A%2F%2Ftracker.openbittorrent.com%3A80&tr=udp%3A%2F%2Ftracker.publicbt.com%3A80&tr=udp%3A%2F%2Ftracker.ccc.de%3A80'
p615
sg12
S'7007027'
p616
sa(dp617
g2
S'/torrent/6802177/Terra_Nova_S01E07_HDTV_XviD-LOL[ettv]'
p618
sg4
S'Terra_Nova_S01E07_HDTV_XviD-LOL[ettv]'
p619
sg6
S'/user/ettv/'
p620
sg8
S'ettv'
p621
sg10
S'magnet:?xt=urn:btih:cdb55c400fcf6aa07e9c39bf712c346e67eebb8e&dn=Terra+Nova+S01E07+HDTV+XviD-LOL%5Bettv%5D&tr=udp%3A%2F%2Ftracker.openbittorrent.com%3A80&tr=udp%3A%2F%2Ftracker.publicbt.com%3A80&tr=udp%3A%2F%2Ftracker.ccc.de%3A80'
p622
sg12
S'6802177'
p623
sa(dp624
g2
S'/torrent/7035689/American_Idol_S11E10_Hollywood_Round_Part_2_HDTV_XviD-FQM_[eztv]'
p625
sg4
S'American_Idol_S11E10_Hollywood_Round_Part_2_HDTV_XviD-FQM_[eztv]'
p626
sg6
S'/user/eztv/'
p627
sg8
S'eztv'
p628
sg10
S'magnet:?xt=urn:btih:dc861b0ea893adf954ac74ff56d9136c26e1efa8&dn=American+Idol+S11E10+Hollywood+Round+Part+2+HDTV+XviD-FQM+%5Beztv%5D&tr=udp%3A%2F%2Ftracker.openbittorrent.com%3A80&tr=udp%3A%2F%2Ftracker.publicbt.com%3A80&tr=udp%3A%2F%2Ftracker.ccc.de%3A80'
p629
sg12
S'7035689'
p630
sa(dp631
g2
S'/torrent/7034452/Immortals[2011]BRRip_XviD-ETRG'
p632
sg4
S'Immortals[2011]BRRip_XviD-ETRG'
p633
sg6
S'/user/SaM/'
p634
sg8
S'SaM'
p635
sg10
S'magnet:?xt=urn:btih:952430547166e9ebfdaa55de02574ca5f30df03a&dn=Immortals%5B2011%5DBRRip+XviD-ETRG&tr=udp%3A%2F%2Ftracker.openbittorrent.com%3A80&tr=udp%3A%2F%2Ftracker.publicbt.com%3A80&tr=udp%3A%2F%2Ftracker.ccc.de%3A80'
p636
sg12
S'7034452'
p637
sa(dp638
g2
S'/torrent/6838637/Killer_Elite_2011_DVDRiP_AC3_XViD-nLiBRA'
p639
sg4
S'Killer_Elite_2011_DVDRiP_AC3_XViD-nLiBRA'
p640
sg6
S'/user/extremezone/'
p641
sg8
S'extremezone'
p642
sg10
S'magnet:?xt=urn:btih:e15848fa0e7ee7c8a351a06d65c29c80424d80a1&dn=Killer+Elite+2011+DVDRiP+AC3+XViD-nLiBRA&tr=udp%3A%2F%2Ftracker.openbittorrent.com%3A80&tr=udp%3A%2F%2Ftracker.publicbt.com%3A80&tr=udp%3A%2F%2Ftracker.ccc.de%3A80'
p643
sg12
S'6838637'
p644
sa(dp645
g2
S'/torrent/6631250/Thor_(2011)_DVDRip_XviD-MAX'
p646
sg4
S'Thor_(2011)_DVDRip_XviD-MAX'
p647
sg6
S'/user/extremezone/'
p648
sg8
S'extremezone'
p649
sg10
S'magnet:?xt=urn:btih:9a8efd265d29d75a73e91a189f874800748e7486&dn=Thor+%282011%29+DVDRip+XviD-MAX&tr=udp%3A%2F%2Ftracker.openbittorrent.com%3A80&tr=udp%3A%2F%2Ftracker.publicbt.com%3A80&tr=udp%3A%2F%2Ftracker.ccc.de%3A80'
p650
sg12
S'6631250'
p651
sa(dp652
g2
S'/torrent/6923292/Sherlock_Holmes__A_Game_of_Shadows_2011_TS_XviD_26K-BiDA'
p653
sg4
S'Sherlock_Holmes__A_Game_of_Shadows_2011_TS_XviD_26K-BiDA'
p654
sg6
S'/user/froggie100/'
p655
sg8
S'froggie100'
p656
sg10
S'magnet:?xt=urn:btih:12086b138175dc7a28981c88a477f4aad01747e4&dn=Sherlock+Holmes%3A+A+Game+of+Shadows+2011+TS+XviD+26K-BiDA&tr=udp%3A%2F%2Ftracker.openbittorrent.com%3A80&tr=udp%3A%2F%2Ftracker.publicbt.com%3A80&tr=udp%3A%2F%2Ftracker.ccc.de%3A80'
p657
sg12
S'6923292'
p658
sa(dp659
g2
S'/torrent/6142952/LMFAO_-_Party_Rock_Anthem_[2011-Single_320][TJ]'
p660
sg4
S'LMFAO_-_Party_Rock_Anthem_[2011-Single_320][TJ]'
p661
sg6
S'/user/.TJ./'
p662
sg8
S'.TJ.'
p663
sg10
S'magnet:?xt=urn:btih:3bccaae20181d6cc31e1d0a3253b6e0ddb6ceff1&dn=LMFAO+-+Party+Rock+Anthem+%5B2011-Single%40320%5D%5BTJ%5D&tr=udp%3A%2F%2Ftracker.openbittorrent.com%3A80&tr=udp%3A%2F%2Ftracker.publicbt.com%3A80&tr=udp%3A%2F%2Ftracker.ccc.de%3A80'
p664
sg12
S'6142952'
p665
sa(dp666
g2
S'/torrent/6631386/David_Guetta_-_Nothing_But_The_Beat_(Album)_(2_CD)_(Mp3)'
p667
sg4
S'David_Guetta_-_Nothing_But_The_Beat_(Album)_(2_CD)_(Mp3)'
p668
sg6
S'/user/-inspiron-/'
p669
sg8
S'-inspiron-'
p670
sg10
S'magnet:?xt=urn:btih:ecc8b205c823f177150f0aa1d1ab56f81e764a23&dn=David+Guetta+-+Nothing+But+The+Beat+%28Album%29+%282+CD%29+%28Mp3%29&tr=udp%3A%2F%2Ftracker.openbittorrent.com%3A80&tr=udp%3A%2F%2Ftracker.publicbt.com%3A80&tr=udp%3A%2F%2Ftracker.ccc.de%3A80'
p671
sg12
S'6631386'
p672
sa(dp673
g2
S'/torrent/6768548/Battlefield_3-RELOADED'
p674
sg4
S'Battlefield_3-RELOADED'
p675
sg6
S'/user/extremezone/'
p676
sg8
S'extremezone'
p677
sg10
S'magnet:?xt=urn:btih:3aa0fdcb47c721622bf551ffe78138743516dec2&dn=Battlefield+3-RELOADED&tr=udp%3A%2F%2Ftracker.openbittorrent.com%3A80&tr=udp%3A%2F%2Ftracker.publicbt.com%3A80&tr=udp%3A%2F%2Ftracker.ccc.de%3A80'
p678
sg12
S'6768548'
p679
sa(dp680
g2
S'/torrent/7030364/Castle_2009_S04E15_HDTV_XviD-LOL_[eztv]'
p681
sg4
S'Castle_2009_S04E15_HDTV_XviD-LOL_[eztv]'
p682
sg6
S'/user/eztv/'
p683
sg8
S'eztv'
p684
sg10
S'magnet:?xt=urn:btih:2a7c5e9bf2882f80644ca0b56041c17acb2af5f0&dn=Castle+2009+S04E15+HDTV+XviD-LOL+%5Beztv%5D&tr=udp%3A%2F%2Ftracker.openbittorrent.com%3A80&tr=udp%3A%2F%2Ftracker.publicbt.com%3A80&tr=udp%3A%2F%2Ftracker.ccc.de%3A80'
p685
sg12
S'7030364'
p686
sa(dp687
g2
S'/torrent/7036727/Justice_League_Doom[2012]BRRip_XviD-ETRG'
p688
sg4
S'Justice_League_Doom[2012]BRRip_XviD-ETRG'
p689
sg6
S'/user/SaM/'
p690
sg8
S'SaM'
p691
sg10
S'magnet:?xt=urn:btih:93b947af53976649f8955104ee6840d7f35bdd2f&dn=Justice+League+Doom%5B2012%5DBRRip+XviD-ETRG&tr=udp%3A%2F%2Ftracker.openbittorrent.com%3A80&tr=udp%3A%2F%2Ftracker.publicbt.com%3A80&tr=udp%3A%2F%2Ftracker.ccc.de%3A80'
p692
sg12
S'7036727'
p693
sa(dp694
g2
S'/torrent/7037864/The_Secret_Circle_S01E15_HDTV_XviD-LOL_[eztv]'
p695
sg4
S'The_Secret_Circle_S01E15_HDTV_XviD-LOL_[eztv]'
p696
sg6
S'/user/eztv/'
p697
sg8
S'eztv'
p698
sg10
S'magnet:?xt=urn:btih:8e201ce68e791528112a12244f79c14e08538e69&dn=The+Secret+Circle+S01E15+HDTV+XviD-LOL+%5Beztv%5D&tr=udp%3A%2F%2Ftracker.openbittorrent.com%3A80&tr=udp%3A%2F%2Ftracker.publicbt.com%3A80&tr=udp%3A%2F%2Ftracker.ccc.de%3A80'
p699
sg12
S'7037864'
p700
sa(dp701
g2
S'/torrent/6729422/Midnight_in_Paris_DVDRip_XviD-TARGET'
p702
sg4
S'Midnight_in_Paris_DVDRip_XviD-TARGET'
p703
sg6
S'/user/extremezone/'
p704
sg8
S'extremezone'
p705
sg10
S'magnet:?xt=urn:btih:be1d8b61d0eb5adb6d45178865b4b7308d8d8f43&dn=Midnight+in+Paris+DVDRip+XviD-TARGET&tr=udp%3A%2F%2Ftracker.openbittorrent.com%3A80&tr=udp%3A%2F%2Ftracker.publicbt.com%3A80&tr=udp%3A%2F%2Ftracker.ccc.de%3A80'
p706
sg12
S'6729422'
p707
sa(dp708
g2
S'/torrent/7034073/Underworld_Awakening[2012]R5_Full_Line_XviD-ETRG'
p709
sg4
S'Underworld_Awakening[2012]R5_Full_Line_XviD-ETRG'
p710
sg6
S'/user/SaM/'
p711
sg8
S'SaM'
p712
sg10
S'magnet:?xt=urn:btih:f36ccf4a8a47fd782b8123d48dfcdd945cb1f893&dn=Underworld+Awakening%5B2012%5DR5+Full+Line+XviD-ETRG&tr=udp%3A%2F%2Ftracker.openbittorrent.com%3A80&tr=udp%3A%2F%2Ftracker.publicbt.com%3A80&tr=udp%3A%2F%2Ftracker.ccc.de%3A80'
p713
sg12
S'7034073'
p714
sa(dp715
g2
S'/torrent/7034151/Immortals_(2011)_DVDRip_XviD-MAX'
p716
sg4
S'Immortals_(2011)_DVDRip_XviD-MAX'
p717
sg6
S'/user/extremezone/'
p718
sg8
S'extremezone'
p719
sg10
S'magnet:?xt=urn:btih:5f24c1756c92592baf931a8fc803fc9e37be879d&dn=Immortals+%282011%29+DVDRip+XviD-MAX&tr=udp%3A%2F%2Ftracker.openbittorrent.com%3A80&tr=udp%3A%2F%2Ftracker.publicbt.com%3A80&tr=udp%3A%2F%2Ftracker.ccc.de%3A80'
p720
sg12
S'7034151'
p721
sa(dp722
g2
S'/torrent/6804632/Call_of_Duty_Modern_Warfare_3-RELOADED'
p723
sg4
S'Call_of_Duty_Modern_Warfare_3-RELOADED'
p724
sg6
S'/user/extremezone/'
p725
sg8
S'extremezone'
p726
sg10
S'magnet:?xt=urn:btih:24d07d7050ca3fb00af55752cec597d7b1731058&dn=Call+of+Duty+Modern+Warfare+3-RELOADED&tr=udp%3A%2F%2Ftracker.openbittorrent.com%3A80&tr=udp%3A%2F%2Ftracker.publicbt.com%3A80&tr=udp%3A%2F%2Ftracker.ccc.de%3A80'
p727
sg12
S'6804632'
p728
sa(dp729
g2
S'/torrent/7037813/The_Big_Bang_Theory_S05E17_HDTV_XviD-LOL_[eztv]'
p730
sg4
S'The_Big_Bang_Theory_S05E17_HDTV_XviD-LOL_[eztv]'
p731
sg6
S'/user/eztv/'
p732
sg8
S'eztv'
p733
sg10
S'magnet:?xt=urn:btih:c2cfcd8d857135aa507cfc8f48ad0f77caa6dfef&dn=The+Big+Bang+Theory+S05E17+HDTV+XviD-LOL+%5Beztv%5D&tr=udp%3A%2F%2Ftracker.openbittorrent.com%3A80&tr=udp%3A%2F%2Ftracker.publicbt.com%3A80&tr=udp%3A%2F%2Ftracker.ccc.de%3A80'
p734
sg12
S'7037813'
p735
sa(dp736
g2
S'/torrent/6863761/PrettyLights-BT'
p737
sg4
S'PrettyLights-BT'
p738
sg6
S'/user/FRITZBox/'
p739
sg8
S'FRITZBox'
p740
sg10
S'magnet:?xt=urn:btih:ee3eb1acec1dc7adc73eda16d05a495bea1dd4be&dn=PrettyLights-BT&tr=udp%3A%2F%2Ftracker.openbittorrent.com%3A80&tr=udp%3A%2F%2Ftracker.publicbt.com%3A80&tr=udp%3A%2F%2Ftracker.ccc.de%3A80'
p741
sg12
S'6863761'
p742
sa(dp743
g2
S'/torrent/7029670/How.I.Met.Your.Mother.S07E16.HDTV.XviD-LOL.[VTV].avi'
p744
sg4
S'How.I.Met.Your.Mother.S07E16.HDTV.XviD-LOL.[VTV].avi'
p745
sg6
S'/user/VTV/'
p746
sg8
S'VTV'
p747
sg10
S'magnet:?xt=urn:btih:909cb893d753727e136100416c49b2b4e34193d6&dn=How.I.Met.Your.Mother.S07E16.HDTV.XviD-LOL.%5BVTV%5D.avi&tr=udp%3A%2F%2Ftracker.openbittorrent.com%3A80&tr=udp%3A%2F%2Ftracker.publicbt.com%3A80&tr=udp%3A%2F%2Ftracker.ccc.de%3A80'
p748
sg12
S'7029670'
p749
sa(dp750
g2
S'/torrent/7023001/J_Edgar_2011_DVDRip_XviD-PADDO'
p751
sg4
S'J_Edgar_2011_DVDRip_XviD-PADDO'
p752
sg6
S'/user/boobsman/'
p753
sg8
S'boobsman'
p754
sg10
S'magnet:?xt=urn:btih:f84b942f0c11448a12715468a498fe856533cdcf&dn=J+Edgar+2011+DVDRip+XviD-PADDO&tr=udp%3A%2F%2Ftracker.openbittorrent.com%3A80&tr=udp%3A%2F%2Ftracker.publicbt.com%3A80&tr=udp%3A%2F%2Ftracker.ccc.de%3A80'
p755
sg12
S'7023001'
p756
sa(dp757
g2
S'/torrent/7035555/Modern_Family_S03E15_HDTV_XviD-LOL_[eztv]'
p758
sg4
S'Modern_Family_S03E15_HDTV_XviD-LOL_[eztv]'
p759
sg6
S'/user/eztv/'
p760
sg8
S'eztv'
p761
sg10
S'magnet:?xt=urn:btih:1997614a9fb4ecb70f35d7a97b19b363e0fd2979&dn=Modern+Family+S03E15+HDTV+XviD-LOL+%5Beztv%5D&tr=udp%3A%2F%2Ftracker.openbittorrent.com%3A80&tr=udp%3A%2F%2Ftracker.publicbt.com%3A80&tr=udp%3A%2F%2Ftracker.ccc.de%3A80'
p762
sg12
S'7035555'
p763
sa(dp764
g2
S'/torrent/7005412/The_Three_Musketeers_(2011)_DVDRip_XviD-MAX'
p765
sg4
S'The_Three_Musketeers_(2011)_DVDRip_XviD-MAX'
p766
sg6
S'/user/extremezone/'
p767
sg8
S'extremezone'
p768
sg10
S'magnet:?xt=urn:btih:632045e8bc80c70d49008cc0217411e4850ca06d&dn=The+Three+Musketeers+%282011%29+DVDRip+XviD-MAX&tr=udp%3A%2F%2Ftracker.openbittorrent.com%3A80&tr=udp%3A%2F%2Ftracker.publicbt.com%3A80&tr=udp%3A%2F%2Ftracker.ccc.de%3A80'
p769
sg12
S'7005412'
p770
sa(dp771
g2
S'/torrent/7035723/Revenge.S01E15.HDTV.XviD-LOL.[VTV].avi'
p772
sg4
S'Revenge.S01E15.HDTV.XviD-LOL.[VTV].avi'
p773
sg6
S'/user/VTV/'
p774
sg8
S'VTV'
p775
sg10
S'magnet:?xt=urn:btih:9fc0c18e04fef8f865e50bc05ed96fe49629f50a&dn=Revenge.S01E15.HDTV.XviD-LOL.%5BVTV%5D.avi&tr=udp%3A%2F%2Ftracker.openbittorrent.com%3A80&tr=udp%3A%2F%2Ftracker.publicbt.com%3A80&tr=udp%3A%2F%2Ftracker.ccc.de%3A80'
p776
sg12
S'7035723'
p777
sa(dp778
g2
S'/torrent/7027211/The_Walking_Dead_S02E08_Nebraska_HDTV_XviD-FQM[ettv]'
p779
sg4
S'The_Walking_Dead_S02E08_Nebraska_HDTV_XviD-FQM[ettv]'
p780
sg6
S'/user/ettv/'
p781
sg8
S'ettv'
p782
sg10
S'magnet:?xt=urn:btih:79afd0045c721ec9c19b813b9b54dc674312c517&dn=The+Walking+Dead+S02E08+Nebraska+HDTV+XviD-FQM%5Bettv%5D&tr=udp%3A%2F%2Ftracker.openbittorrent.com%3A80&tr=udp%3A%2F%2Ftracker.publicbt.com%3A80&tr=udp%3A%2F%2Ftracker.ccc.de%3A80'
p783
sg12
S'7027211'
p784
sa(dp785
g2
S'/torrent/7037819/The.Mentalist.S04E15.HDTV.XviD-LOL.[VTV].avi'
p786
sg4
S'The.Mentalist.S04E15.HDTV.XviD-LOL.[VTV].avi'
p787
sg6
S'/user/VTV/'
p788
sg8
S'VTV'
p789
sg10
S'magnet:?xt=urn:btih:3b3cd4407e184d54dc3a7231d8110678375ae287&dn=The.Mentalist.S04E15.HDTV.XviD-LOL.%5BVTV%5D.avi&tr=udp%3A%2F%2Ftracker.openbittorrent.com%3A80&tr=udp%3A%2F%2Ftracker.publicbt.com%3A80&tr=udp%3A%2F%2Ftracker.ccc.de%3A80'
p790
sg12
S'7037819'
p791
sa(dp792
g2
S'/torrent/7020128/Tower.Heist.2011.DVDRip-PA'
p793
sg4
S'Tower.Heist.2011.DVDRip-PA'
p794
sg6
S'/user/LegendET/'
p795
sg8
S'LegendET'
p796
sg10
S'magnet:?xt=urn:btih:0581dbd0e8917658ed5b641d3b037002cbe5965c&dn=Tower.Heist.2011.DVDRip-PA&tr=udp%3A%2F%2Ftracker.openbittorrent.com%3A80&tr=udp%3A%2F%2Ftracker.publicbt.com%3A80&tr=udp%3A%2F%2Ftracker.ccc.de%3A80'
p797
sg12
S'7020128'
p798
sa(dp799
g2
S'/torrent/6978371/The_Girl_With_A_Dragon_Tattoo_2011_DVDSCR_XviD_AC3-FTW'
p800
sg4
S'The_Girl_With_A_Dragon_Tattoo_2011_DVDSCR_XviD_AC3-FTW'
p801
sg6
S'/user/SaM/'
p802
sg8
S'SaM'
p803
sg10
S'magnet:?xt=urn:btih:1f75170b358e5307644272c6a1dc839ff8d873ff&dn=The+Girl+With+A+Dragon+Tattoo+2011+DVDSCR+XviD+AC3-FTW&tr=udp%3A%2F%2Ftracker.openbittorrent.com%3A80&tr=udp%3A%2F%2Ftracker.publicbt.com%3A80&tr=udp%3A%2F%2Ftracker.ccc.de%3A80'
p804
sg12
S'6978371'
p805
sa(dp806
g2
S'/torrent/6302440/DriverPack_Solution_11_(x32-x64)__[_Victory]_'
p807
sg4
S'DriverPack_Solution_11_(x32-x64)__[_Victory]_'
p808
sg6
S'/user/victory144/'
p809
sg8
S'victory144'
p810
sg10
S'magnet:?xt=urn:btih:a6db978a936cb460292c4574dc3ed5d81cd33455&dn=DriverPack+Solution+11+%28x32-x64%29++%5B+Victory%5D+&tr=udp%3A%2F%2Ftracker.openbittorrent.com%3A80&tr=udp%3A%2F%2Ftracker.publicbt.com%3A80&tr=udp%3A%2F%2Ftracker.ccc.de%3A80'
p811
sg12
S'6302440'
p812
sa(dp813
g2
S'/torrent/6800294/Rise_of_the_Planet_of_the_Apes_(2011)_DVDRip_XviD-MAX'
p814
sg4
S'Rise_of_the_Planet_of_the_Apes_(2011)_DVDRip_XviD-MAX'
p815
sg6
S'/user/extremezone/'
p816
sg8
S'extremezone'
p817
sg10
S'magnet:?xt=urn:btih:1dc3cab02bde66b7d6f9974c4260f9e86de78743&dn=Rise+of+the+Planet+of+the+Apes+%282011%29+DVDRip+XviD-MAX&tr=udp%3A%2F%2Ftracker.openbittorrent.com%3A80&tr=udp%3A%2F%2Ftracker.publicbt.com%3A80&tr=udp%3A%2F%2Ftracker.ccc.de%3A80'
p818
sg12
S'6800294'
p819
sa(dp820
g2
S'/torrent/7037817/30_Rock_S06E08_HDTV_XviD-LOL_[eztv]'
p821
sg4
S'30_Rock_S06E08_HDTV_XviD-LOL_[eztv]'
p822
sg6
S'/user/eztv/'
p823
sg8
S'eztv'
p824
sg10
S'magnet:?xt=urn:btih:f7bb869672b1e9fd87055047b9ed0a5bc0b8b9de&dn=30+Rock+S06E08+HDTV+XviD-LOL+%5Beztv%5D&tr=udp%3A%2F%2Ftracker.openbittorrent.com%3A80&tr=udp%3A%2F%2Ftracker.publicbt.com%3A80&tr=udp%3A%2F%2Ftracker.ccc.de%3A80'
p825
sg12
S'7037817'
p826
sa(dp827
g2
S'/torrent/7034734/Alan_Wake-SKIDROW'
p828
sg4
S'Alan_Wake-SKIDROW'
p829
sg6
S'/user/extremezone/'
p830
sg8
S'extremezone'
p831
sg10
S'magnet:?xt=urn:btih:4edcc19a4f98079d4af0ed366ff3bd6b8df333b8&dn=Alan+Wake-SKIDROW&tr=udp%3A%2F%2Ftracker.openbittorrent.com%3A80&tr=udp%3A%2F%2Ftracker.publicbt.com%3A80&tr=udp%3A%2F%2Ftracker.ccc.de%3A80'
p832
sg12
S'7034734'
p833
sa(dp834
g2
S'/torrent/7034015/Sleeping_Beauty_(2011)_BRRip_Xvid_AC3-Anarchy'
p835
sg4
S'Sleeping_Beauty_(2011)_BRRip_Xvid_AC3-Anarchy'
p836
sg6
S'/user/fasamoo/'
p837
sg8
S'fasamoo'
p838
sg10
S'magnet:?xt=urn:btih:389d5d98a3717aafa1e40212e3d4059d9cc454d4&dn=Sleeping+Beauty+%282011%29+BRRip+Xvid+AC3-Anarchy&tr=udp%3A%2F%2Ftracker.openbittorrent.com%3A80&tr=udp%3A%2F%2Ftracker.publicbt.com%3A80&tr=udp%3A%2F%2Ftracker.ccc.de%3A80'
p839
sg12
S'7034015'
p840
sa(dp841
g2
S'/torrent/7029891/Alcatraz.S01E06.HDTV.XviD-LOL.[VTV].avi'
p842
sg4
S'Alcatraz.S01E06.HDTV.XviD-LOL.[VTV].avi'
p843
sg6
S'/user/VTV/'
p844
sg8
S'VTV'
p845
sg10
S'magnet:?xt=urn:btih:1101a8b5af42ef5348d8f560a1830104968db366&dn=Alcatraz.S01E06.HDTV.XviD-LOL.%5BVTV%5D.avi&tr=udp%3A%2F%2Ftracker.openbittorrent.com%3A80&tr=udp%3A%2F%2Ftracker.publicbt.com%3A80&tr=udp%3A%2F%2Ftracker.ccc.de%3A80'
p846
sg12
S'7029891'
p847
sa(dp848
g2
S'/torrent/7021187/The_Big_Bang_Theory_S05E16_HDTV_XviD-LOL_[eztv]'
p849
sg4
S'The_Big_Bang_Theory_S05E16_HDTV_XviD-LOL_[eztv]'
p850
sg6
S'/user/eztv/'
p851
sg8
S'eztv'
p852
sg10
S'magnet:?xt=urn:btih:1f3c513ba09529ae5c6f441359fda9bfa159b560&dn=The+Big+Bang+Theory+S05E16+HDTV+XviD-LOL+%5Beztv%5D&tr=udp%3A%2F%2Ftracker.openbittorrent.com%3A80&tr=udp%3A%2F%2Ftracker.publicbt.com%3A80&tr=udp%3A%2F%2Ftracker.ccc.de%3A80'
p853
sg12
S'7021187'
p854
sa(dp855
g2
S'/torrent/6964457/In_Time_(2011)_DVDRip_XviD-MAX'
p856
sg4
S'In_Time_(2011)_DVDRip_XviD-MAX'
p857
sg6
S'/user/extremezone/'
p858
sg8
S'extremezone'
p859
sg10
S'magnet:?xt=urn:btih:cb8dc1959bee01e714f9f082de5abf7d0bc005ee&dn=In+Time+%282011%29+DVDRip+XviD-MAX&tr=udp%3A%2F%2Ftracker.openbittorrent.com%3A80&tr=udp%3A%2F%2Ftracker.publicbt.com%3A80&tr=udp%3A%2F%2Ftracker.ccc.de%3A80'
p860
sg12
S'6964457'
p861
sa(dp862
g2
S'/torrent/7022659/Puss_in_Boots[2011]BRRip_XviD-ETRG'
p863
sg4
S'Puss_in_Boots[2011]BRRip_XviD-ETRG'
p864
sg6
S'/user/SaM/'
p865
sg8
S'SaM'
p866
sg10
S'magnet:?xt=urn:btih:2deeffcb7e7b3a0c35d7fa22e9bbe5b485a50766&dn=Puss+in+Boots%5B2011%5DBRRip+XviD-ETRG&tr=udp%3A%2F%2Ftracker.openbittorrent.com%3A80&tr=udp%3A%2F%2Ftracker.publicbt.com%3A80&tr=udp%3A%2F%2Ftracker.ccc.de%3A80'
p867
sg12
S'7022659'
p868
sa(dp869
g2
S'/torrent/6927675/Real_Steel_2011_DVDRip.XviD.AC3-3LT0N'
p870
sg4
S'Real_Steel_2011_DVDRip.XviD.AC3-3LT0N'
p871
sg6
S'/user/neon/'
p872
sg8
S'neon'
p873
sg10
S'magnet:?xt=urn:btih:273b2293147f9d9f1fd18259ff551ba4c10393d1&dn=Real+Steel+2011+DVDRip.XviD.AC3-3LT0N&tr=udp%3A%2F%2Ftracker.openbittorrent.com%3A80&tr=udp%3A%2F%2Ftracker.publicbt.com%3A80&tr=udp%3A%2F%2Ftracker.ccc.de%3A80'
p874
sg12
S'6927675'
p875
sa(dp876
g2
S'/torrent/6806624/Drake_-_Take_Care_(Deluxe_Version)_[Official_Album]_[CD-Rip]'
p877
sg4
S'Drake_-_Take_Care_(Deluxe_Version)_[Official_Album]_[CD-Rip]'
p878
sg6
S'/user/theLEAK/'
p879
sg8
S'theLEAK'
p880
sg10
S'magnet:?xt=urn:btih:03db8637a8e16f7d5e3e4f7557d5d87b1905dc16&dn=Drake+-+Take+Care+%28Deluxe+Version%29+%5BOfficial+Album%5D+%5BCD-Rip%5D&tr=udp%3A%2F%2Ftracker.openbittorrent.com%3A80&tr=udp%3A%2F%2Ftracker.publicbt.com%3A80&tr=udp%3A%2F%2Ftracker.ccc.de%3A80'
p881
sg12
S'6806624'
p882
sa(dp883
g2
S'/torrent/7035600/Criminal.Minds.S07E14.HDTV.XviD-LOL.[VTV].avi'
p884
sg4
S'Criminal.Minds.S07E14.HDTV.XviD-LOL.[VTV].avi'
p885
sg6
S'/user/VTV/'
p886
sg8
S'VTV'
p887
sg10
S'magnet:?xt=urn:btih:4680495d9f8fb014297dde4e539354cbec4f1f2f&dn=Criminal.Minds.S07E14.HDTV.XviD-LOL.%5BVTV%5D.avi&tr=udp%3A%2F%2Ftracker.openbittorrent.com%3A80&tr=udp%3A%2F%2Ftracker.publicbt.com%3A80&tr=udp%3A%2F%2Ftracker.ccc.de%3A80'
p888
sg12
S'7035600'
p889
sa(dp890
g2
S'/torrent/7029730/House_S08E12_HDTV_XviD-LOL_[eztv]'
p891
sg4
S'House_S08E12_HDTV_XviD-LOL_[eztv]'
p892
sg6
S'/user/eztv/'
p893
sg8
S'eztv'
p894
sg10
S'magnet:?xt=urn:btih:38710c0c2c005220c09ec33320b0c9de37e8286b&dn=House+S08E12+HDTV+XviD-LOL+%5Beztv%5D&tr=udp%3A%2F%2Ftracker.openbittorrent.com%3A80&tr=udp%3A%2F%2Ftracker.publicbt.com%3A80&tr=udp%3A%2F%2Ftracker.ccc.de%3A80'
p895
sg12
S'7029730'
p896
sa(dp897
g2
S'/torrent/7036710/UFC.On.Fuel.Sanchez.vs.Ellenberger.HDTV.x264-RUDOS'
p898
sg4
S'UFC.On.Fuel.Sanchez.vs.Ellenberger.HDTV.x264-RUDOS'
p899
sg6
S'/user/scene4all/'
p900
sg8
S'scene4all'
p901
sg10
S'magnet:?xt=urn:btih:744b2dfc7e0120acb85b24dae585aa7d5cefe35c&dn=UFC.On.Fuel.Sanchez.vs.Ellenberger.HDTV.x264-RUDOS&tr=udp%3A%2F%2Ftracker.openbittorrent.com%3A80&tr=udp%3A%2F%2Ftracker.publicbt.com%3A80&tr=udp%3A%2F%2Ftracker.ccc.de%3A80'
p902
sg12
S'7036710'
p903
sa(dp904
g2
S'/torrent/6802142/How_I_Met_Your_Mother_S07E09_HDTV_XviD-LOL[ettv]'
p905
sg4
S'How_I_Met_Your_Mother_S07E09_HDTV_XviD-LOL[ettv]'
p906
sg6
S'/user/ettv/'
p907
sg8
S'ettv'
p908
sg10
S'magnet:?xt=urn:btih:111f9b8a9e31e80dc34bcbdf014f6b7ce409c869&dn=How+I+Met+Your+Mother+S07E09+HDTV+XviD-LOL%5Bettv%5D&tr=udp%3A%2F%2Ftracker.openbittorrent.com%3A80&tr=udp%3A%2F%2Ftracker.publicbt.com%3A80&tr=udp%3A%2F%2Ftracker.ccc.de%3A80'
p909
sg12
S'6802142'
p910
sa(dp911
g2
S'/torrent/7031647/Underworld.Awakening.2012.R5.READNFO.XviD-BiDA'
p912
sg4
S'Underworld.Awakening.2012.R5.READNFO.XviD-BiDA'
p913
sg6
S'/user/LegendET/'
p914
sg8
S'LegendET'
p915
sg10
S'magnet:?xt=urn:btih:2cddd026e944cde5b4e5e06fe39750af79a95605&dn=Underworld.Awakening.2012.R5.READNFO.XviD-BiDA&tr=udp%3A%2F%2Ftracker.openbittorrent.com%3A80&tr=udp%3A%2F%2Ftracker.publicbt.com%3A80&tr=udp%3A%2F%2Ftracker.ccc.de%3A80'
p916
sg12
S'7031647'
p917
sa(dp918
g2
S'/torrent/6799668/The_Walking_Dead_S02E04_HDTV_XviD-ASAP[ettv]'
p919
sg4
S'The_Walking_Dead_S02E04_HDTV_XviD-ASAP[ettv]'
p920
sg6
S'/user/ettv/'
p921
sg8
S'ettv'
p922
sg10
S'magnet:?xt=urn:btih:308d92c9a645ec6d277b9c1d2998f92bda952195&dn=The+Walking+Dead+S02E04+HDTV+XviD-ASAP%5Bettv%5D&tr=udp%3A%2F%2Ftracker.openbittorrent.com%3A80&tr=udp%3A%2F%2Ftracker.publicbt.com%3A80&tr=udp%3A%2F%2Ftracker.ccc.de%3A80'
p923
sg12
S'6799668'
p924
sa(dp925
g2
S'/torrent/6808323/The_Elder_Scrolls_V_Skyrim-Razor1911'
p926
sg4
S'The_Elder_Scrolls_V_Skyrim-Razor1911'
p927
sg6
S'/user/extremezone/'
p928
sg8
S'extremezone'
p929
sg10
S'magnet:?xt=urn:btih:0a683534cc69c5ce3d23d7319442624256d78297&dn=The+Elder+Scrolls+V+Skyrim-Razor1911&tr=udp%3A%2F%2Ftracker.openbittorrent.com%3A80&tr=udp%3A%2F%2Ftracker.publicbt.com%3A80&tr=udp%3A%2F%2Ftracker.ccc.de%3A80'
p930
sg12
S'6808323'
p931
sa(dp932
g2
S'/torrent/7020277/Tower_Heist_(2011)_DVDRip_XviD-MAX'
p933
sg4
S'Tower_Heist_(2011)_DVDRip_XviD-MAX'
p934
sg6
S'/user/extremezone/'
p935
sg8
S'extremezone'
p936
sg10
S'magnet:?xt=urn:btih:f4b5634a53404036756c0c3d8fea1cbd03dcff67&dn=Tower+Heist+%282011%29+DVDRip+XviD-MAX&tr=udp%3A%2F%2Ftracker.openbittorrent.com%3A80&tr=udp%3A%2F%2Ftracker.publicbt.com%3A80&tr=udp%3A%2F%2Ftracker.ccc.de%3A80'
p937
sg12
S'7020277'
p938
sa(dp939
g2
S'/torrent/6983060/The.Rum.Diary.2011.DVDRiP.AC3-5.1.XviD-SiC'
p940
sg4
S'The.Rum.Diary.2011.DVDRiP.AC3-5.1.XviD-SiC'
p941
sg6
S'/user/HeroMaster/'
p942
sg8
S'HeroMaster'
p943
sg10
S'magnet:?xt=urn:btih:0eb5f0eaa74dad23e4e21d2e651a9e79ea34b1bb&dn=The.Rum.Diary.2011.DVDRiP.AC3-5.1.XviD-SiC&tr=udp%3A%2F%2Ftracker.openbittorrent.com%3A80&tr=udp%3A%2F%2Ftracker.publicbt.com%3A80&tr=udp%3A%2F%2Ftracker.ccc.de%3A80'
p944
sg12
S'6983060'
p945
sa(dp946
g2
S'/torrent/6940612/War.Horse.2011.DVDSCR.XVID.Une-CM8'
p947
sg4
S'War.Horse.2011.DVDSCR.XVID.Une-CM8'
p948
sg6
S'/user/LegendET/'
p949
sg8
S'LegendET'
p950
sg10
S'magnet:?xt=urn:btih:cece42a9aecd669bec0f3799cea49caead38becd&dn=War.Horse.2011.DVDSCR.XVID.Une-CM8&tr=udp%3A%2F%2Ftracker.openbittorrent.com%3A80&tr=udp%3A%2F%2Ftracker.publicbt.com%3A80&tr=udp%3A%2F%2Ftracker.ccc.de%3A80'
p951
sg12
S'6940612'
p952
sa(dp953
g2
S'/torrent/6962587/The_Descendants_2011_DVDSCR_XviD-GooN'
p954
sg4
S'The_Descendants_2011_DVDSCR_XviD-GooN'
p955
sg6
S'/user/Hackulus/'
p956
sg8
S'Hackulus'
p957
sg10
S'magnet:?xt=urn:btih:f75771dbb94fa6e0547d43e98a7b04da01d30743&dn=The+Descendants+2011+DVDSCR+XviD-GooN&tr=udp%3A%2F%2Ftracker.openbittorrent.com%3A80&tr=udp%3A%2F%2Ftracker.publicbt.com%3A80&tr=udp%3A%2F%2Ftracker.ccc.de%3A80'
p958
sg12
S'6962587'
p959
sa(dp960
g2
S'/torrent/6828300/Cowboys_and_Aliens_(2011)_DVDRip_XviD-MAX'
p961
sg4
S'Cowboys_and_Aliens_(2011)_DVDRip_XviD-MAX'
p962
sg6
S'/user/extremezone/'
p963
sg8
S'extremezone'
p964
sg10
S'magnet:?xt=urn:btih:5c077c605b478d7f3ace34da4879d7c6c274810a&dn=Cowboys+and+Aliens+%282011%29+DVDRip+XviD-MAX&tr=udp%3A%2F%2Ftracker.openbittorrent.com%3A80&tr=udp%3A%2F%2Ftracker.publicbt.com%3A80&tr=udp%3A%2F%2Ftracker.ccc.de%3A80'
p965
sg12
S'6828300'
p966
sa(dp967
g2
S'/torrent/6754327/The_Hangover_2_(2011)_DVDRip_XviD-MAX'
p968
sg4
S'The_Hangover_2_(2011)_DVDRip_XviD-MAX'
p969
sg6
S'/user/extremezone/'
p970
sg8
S'extremezone'
p971
sg10
S'magnet:?xt=urn:btih:9bda9cb9b94b0663ea83348b47ec53e3c08e69f0&dn=The+Hangover+2+%282011%29+DVDRip+XviD-MAX&tr=udp%3A%2F%2Ftracker.openbittorrent.com%3A80&tr=udp%3A%2F%2Ftracker.publicbt.com%3A80&tr=udp%3A%2F%2Ftracker.ccc.de%3A80'
p972
sg12
S'6754327'
p973
sa(dp974
g2
S'/torrent/7033014/Glee.S03E13.HDTV.XviD-LOL.[VTV].avi'
p975
sg4
S'Glee.S03E13.HDTV.XviD-LOL.[VTV].avi'
p976
sg6
S'/user/VTV/'
p977
sg8
S'VTV'
p978
sg10
S'magnet:?xt=urn:btih:30cb077d8578c1b5bf81d021a047ba5755ca57f9&dn=Glee.S03E13.HDTV.XviD-LOL.%5BVTV%5D.avi&tr=udp%3A%2F%2Ftracker.openbittorrent.com%3A80&tr=udp%3A%2F%2Ftracker.publicbt.com%3A80&tr=udp%3A%2F%2Ftracker.ccc.de%3A80'
p979
sg12
S'7033014'
p980
sa(dp981
g2
S'/torrent/7029714/Gossip.Girl.S05E15.HDTV.XviD-LOL.[VTV].avi'
p982
sg4
S'Gossip.Girl.S05E15.HDTV.XviD-LOL.[VTV].avi'
p983
sg6
S'/user/VTV/'
p984
sg8
S'VTV'
p985
sg10
S'magnet:?xt=urn:btih:dde68ab3c83e34af4288bf626b0d1f35bac72a91&dn=Gossip.Girl.S05E15.HDTV.XviD-LOL.%5BVTV%5D.avi&tr=udp%3A%2F%2Ftracker.openbittorrent.com%3A80&tr=udp%3A%2F%2Ftracker.publicbt.com%3A80&tr=udp%3A%2F%2Ftracker.ccc.de%3A80'
p986
sg12
S'7029714'
p987
sa(dp988
g2
S'/torrent/6892152/Moneyball_2011_BRRip_XviD-FTW'
p989
sg4
S'Moneyball_2011_BRRip_XviD-FTW'
p990
sg6
S'/user/HeroMaster/'
p991
sg8
S'HeroMaster'
p992
sg10
S'magnet:?xt=urn:btih:43511e94f986524a254b52b2ef8818d0a34f69a0&dn=Moneyball+2011+BRRip+XviD-FTW&tr=udp%3A%2F%2Ftracker.openbittorrent.com%3A80&tr=udp%3A%2F%2Ftracker.publicbt.com%3A80&tr=udp%3A%2F%2Ftracker.ccc.de%3A80'
p993
sg12
S'6892152'
p994
sa(dp995
g2
S'/torrent/6451529/Adele_-_21_(Limited_Edition_CD-Rip__320kbps_Bonus_Cov)_[PRIME]'
p996
sg4
S'Adele_-_21_(Limited_Edition_CD-Rip__320kbps_Bonus_Cov)_[PRIME]'
p997
sg6
S'/user/L3G3ND/'
p998
sg8
S'L3G3ND'
p999
sg10
S'magnet:?xt=urn:btih:8f8d94e8128007364c19d826671e348bc2215fff&dn=Adele+-+21+%28Limited+Edition+CD-Rip+%40320kbps+Bonus%2BCov%29+%5BPRIME%5D&tr=udp%3A%2F%2Ftracker.openbittorrent.com%3A80&tr=udp%3A%2F%2Ftracker.publicbt.com%3A80&tr=udp%3A%2F%2Ftracker.ccc.de%3A80'
p1000
sg12
S'6451529'
p1001
sa(dp1002
g2
S'/torrent/6986026/The_Twilight_Saga_Breaking_Dawn-Part1[2011]BRRip_XviD-ETRG'
p1003
sg4
S'The_Twilight_Saga_Breaking_Dawn-Part1[2011]BRRip_XviD-ETRG'
p1004
sg6
S'/user/SaM/'
p1005
sg8
S'SaM'
p1006
sg10
S'magnet:?xt=urn:btih:dab0c21f38428967dd897bc64e0a6f643cf02844&dn=The+Twilight+Saga+Breaking+Dawn-Part1%5B2011%5DBRRip+XviD-ETRG&tr=udp%3A%2F%2Ftracker.openbittorrent.com%3A80&tr=udp%3A%2F%2Ftracker.publicbt.com%3A80&tr=udp%3A%2F%2Ftracker.ccc.de%3A80'
p1007
sg12
S'6986026'
p1008
sa(dp1009
g2
S'/torrent/6880748/Contagion_2011_DVDRip_XviD-AMIABLE'
p1010
sg4
S'Contagion_2011_DVDRip_XviD-AMIABLE'
p1011
sg6
S'/user/extremezone/'
p1012
sg8
S'extremezone'
p1013
sg10
S'magnet:?xt=urn:btih:188a775d889198c86071829f9cb0829fa1bf9481&dn=Contagion+2011+DVDRip+XviD-AMIABLE&tr=udp%3A%2F%2Ftracker.openbittorrent.com%3A80&tr=udp%3A%2F%2Ftracker.publicbt.com%3A80&tr=udp%3A%2F%2Ftracker.ccc.de%3A80'
p1014
sg12
S'6880748'
p1015
sa(dp1016
g2
S'/torrent/6968988/A_Very_Harold_And_Kumar_Christmas_DVDRip_XviD-DiAMOND'
p1017
sg4
S'A_Very_Harold_And_Kumar_Christmas_DVDRip_XviD-DiAMOND'
p1018
sg6
S'/user/boobsman/'
p1019
sg8
S'boobsman'
p1020
sg10
S'magnet:?xt=urn:btih:a5a0e5f7c5265c817c6b0a4029e37ddd4eb222d5&dn=A+Very+Harold+And+Kumar+Christmas+DVDRip+XviD-DiAMOND&tr=udp%3A%2F%2Ftracker.openbittorrent.com%3A80&tr=udp%3A%2F%2Ftracker.publicbt.com%3A80&tr=udp%3A%2F%2Ftracker.ccc.de%3A80'
p1021
sg12
S'6968988'
p1022
sa(dp1023
g2
S'/torrent/6796866/Conan_the_Barbarian_(2011)_DVDRip_XviD-MAX'
p1024
sg4
S'Conan_the_Barbarian_(2011)_DVDRip_XviD-MAX'
p1025
sg6
S'/user/extremezone/'
p1026
sg8
S'extremezone'
p1027
sg10
S'magnet:?xt=urn:btih:0d7a2a89bbfd09360dec265c65530203db5027ca&dn=Conan+the+Barbarian+%282011%29+DVDRip+XviD-MAX&tr=udp%3A%2F%2Ftracker.openbittorrent.com%3A80&tr=udp%3A%2F%2Ftracker.publicbt.com%3A80&tr=udp%3A%2F%2Ftracker.ccc.de%3A80'
p1028
sg12
S'6796866'
p1029
sa(dp1030
g2
S'/torrent/6869314/Warrior_DVDRip_XviD-DiAMOND'
p1031
sg4
S'Warrior_DVDRip_XviD-DiAMOND'
p1032
sg6
S'/user/extremezone/'
p1033
sg8
S'extremezone'
p1034
sg10
S'magnet:?xt=urn:btih:ab00fd60d4ac7116ca8d2ea7a1d97b9d0cf480c2&dn=Warrior+DVDRip+XviD-DiAMOND&tr=udp%3A%2F%2Ftracker.openbittorrent.com%3A80&tr=udp%3A%2F%2Ftracker.publicbt.com%3A80&tr=udp%3A%2F%2Ftracker.ccc.de%3A80'
p1035
sg12
S'6869314'
p1036
sa(dp1037
g2
S'/torrent/6694883/Horrible_Bosses_2011_DVDRip_XviD-AMIABLE'
p1038
sg4
S'Horrible_Bosses_2011_DVDRip_XviD-AMIABLE'
p1039
sg6
S'/user/extremezone/'
p1040
sg8
S'extremezone'
p1041
sg10
S'magnet:?xt=urn:btih:02c7097f4f8a284367d1e36e5b08502f802e5fef&dn=Horrible+Bosses+2011+DVDRip+XviD-AMIABLE&tr=udp%3A%2F%2Ftracker.openbittorrent.com%3A80&tr=udp%3A%2F%2Ftracker.publicbt.com%3A80&tr=udp%3A%2F%2Ftracker.ccc.de%3A80'
p1042
sg12
S'6694883'
p1043
sa(dp1044
g2
S'/torrent/7020300/Tower.Heist.2011.720p.BluRay.x264-AMIABLE'
p1045
sg4
S'Tower.Heist.2011.720p.BluRay.x264-AMIABLE'
p1046
sg6
S'/user/BOZX/'
p1047
sg8
S'BOZX'
p1048
sg10
S'magnet:?xt=urn:btih:05e86a40f088fcbd9ddaad4a826b0b70658ee19f&dn=Tower.Heist.2011.720p.BluRay.x264-AMIABLE&tr=udp%3A%2F%2Ftracker.openbittorrent.com%3A80&tr=udp%3A%2F%2Ftracker.publicbt.com%3A80&tr=udp%3A%2F%2Ftracker.ccc.de%3A80'
p1049
sg12
S'7020300'
p1050
sa(dp1051
g2
S'/torrent/7029784/Two_and_a_Half_Men_S09E16_HDTV_XviD-LOL_[eztv]'
p1052
sg4
S'Two_and_a_Half_Men_S09E16_HDTV_XviD-LOL_[eztv]'
p1053
sg6
S'/user/eztv/'
p1054
sg8
S'eztv'
p1055
sg10
S'magnet:?xt=urn:btih:ab982fe52bcbc769909412a8113fdcc89c7218ee&dn=Two+and+a+Half+Men+S09E16+HDTV+XviD-LOL+%5Beztv%5D&tr=udp%3A%2F%2Ftracker.openbittorrent.com%3A80&tr=udp%3A%2F%2Ftracker.publicbt.com%3A80&tr=udp%3A%2F%2Ftracker.ccc.de%3A80'
p1056
sg12
S'7029784'
p1057
sa(dp1058
g2
S'/torrent/6697947/Transformers_3_Dark_of_the_Moon_(2011)_DVDRip_XviD-MAX'
p1059
sg4
S'Transformers_3_Dark_of_the_Moon_(2011)_DVDRip_XviD-MAX'
p1060
sg6
S'/user/extremezone/'
p1061
sg8
S'extremezone'
p1062
sg10
S'magnet:?xt=urn:btih:7782b9f9646066cfd2f3f273e63a29c3e9b06d12&dn=Transformers+3+Dark+of+the+Moon+%282011%29+DVDRip+XviD-MAX&tr=udp%3A%2F%2Ftracker.openbittorrent.com%3A80&tr=udp%3A%2F%2Ftracker.publicbt.com%3A80&tr=udp%3A%2F%2Ftracker.ccc.de%3A80'
p1063
sg12
S'6697947'
p1064
sa(dp1065
g2
S'/torrent/6945349/Johnny_English_Reborn_(2011)_DVDRip_XviD-MAX'
p1066
sg4
S'Johnny_English_Reborn_(2011)_DVDRip_XviD-MAX'
p1067
sg6
S'/user/extremezone/'
p1068
sg8
S'extremezone'
p1069
sg10
S'magnet:?xt=urn:btih:58c549640bf5db8068fd0b44113363f9f2ebdd66&dn=Johnny+English+Reborn+%282011%29+DVDRip+XviD-MAX&tr=udp%3A%2F%2Ftracker.openbittorrent.com%3A80&tr=udp%3A%2F%2Ftracker.publicbt.com%3A80&tr=udp%3A%2F%2Ftracker.ccc.de%3A80'
p1070
sg12
S'6945349'
p1071
sa(dp1072
g2
S'/torrent/6802191/Gossip.Girl.S05E06.HDTV.XviD-ASAP.[VTV].avi'
p1073
sg4
S'Gossip.Girl.S05E06.HDTV.XviD-ASAP.[VTV].avi'
p1074
sg6
S'/user/VTV/'
p1075
sg8
S'VTV'
p1076
sg10
S'magnet:?xt=urn:btih:d96143d67b3781626f5ed2f4981ffe466d13fa74&dn=Gossip.Girl.S05E06.HDTV.XviD-ASAP.%5BVTV%5D.avi&tr=udp%3A%2F%2Ftracker.openbittorrent.com%3A80&tr=udp%3A%2F%2Ftracker.publicbt.com%3A80&tr=udp%3A%2F%2Ftracker.ccc.de%3A80'
p1077
sg12
S'6802191'
p1078
sa(dp1079
g2
S'/torrent/7023473/J.Edgar_2011_720p_BluRay_x264-SPARKS'
p1080
sg4
S'J.Edgar_2011_720p_BluRay_x264-SPARKS'
p1081
sg6
S'/user/MScope40/'
p1082
sg8
S'MScope40'
p1083
sg10
S'magnet:?xt=urn:btih:680c01c6d44a01964499757089cd213f3159f45d&dn=J.Edgar+2011+720p+BluRay+x264-SPARKS&tr=udp%3A%2F%2Ftracker.openbittorrent.com%3A80&tr=udp%3A%2F%2Ftracker.publicbt.com%3A80&tr=udp%3A%2F%2Ftracker.ccc.de%3A80'
p1084
sg12
S'7023473'
p1085
sa(dp1086
g2
S'/torrent/7034948/Gang_Of_Roses_Next_Generation_2012_DVDRip_Xvid_UnKnOwN'
p1087
sg4
S'Gang_Of_Roses_Next_Generation_2012_DVDRip_Xvid_UnKnOwN'
p1088
sg6
S'/user/LegendET/'
p1089
sg8
S'LegendET'
p1090
sg10
S'magnet:?xt=urn:btih:ad6a753f7d2310503b9502dec798c6f291928153&dn=Gang+Of+Roses+Next+Generation+2012+DVDRip+Xvid+UnKnOwN&tr=udp%3A%2F%2Ftracker.openbittorrent.com%3A80&tr=udp%3A%2F%2Ftracker.publicbt.com%3A80&tr=udp%3A%2F%2Ftracker.ccc.de%3A80'
p1091
sg12
S'7034948'
p1092
sa(dp1093
g2
S'/torrent/6743304/Captain_America_The_First_Avenger_(2011)_DVDRip_XviD-MAX'
p1094
sg4
S'Captain_America_The_First_Avenger_(2011)_DVDRip_XviD-MAX'
p1095
sg6
S'/user/extremezone/'
p1096
sg8
S'extremezone'
p1097
sg10
S'magnet:?xt=urn:btih:6e7cd0025d28463a70818e5209df96621a85acaa&dn=Captain+America+The+First+Avenger+%282011%29+DVDRip+XviD-MAX&tr=udp%3A%2F%2Ftracker.openbittorrent.com%3A80&tr=udp%3A%2F%2Ftracker.publicbt.com%3A80&tr=udp%3A%2F%2Ftracker.ccc.de%3A80'
p1098
sg12
S'6743304'
p1099
sa(dp1100
g2
S'/torrent/7037873/The_Vampire_Diaries_S03E15_HDTV_XviD-2HD_[eztv]'
p1101
sg4
S'The_Vampire_Diaries_S03E15_HDTV_XviD-2HD_[eztv]'
p1102
sg6
S'/user/eztv/'
p1103
sg8
S'eztv'
p1104
sg10
S'magnet:?xt=urn:btih:e55c31febc942f1bbbb9d2817068640ceae73f3e&dn=The+Vampire+Diaries+S03E15+HDTV+XviD-2HD+%5Beztv%5D&tr=udp%3A%2F%2Ftracker.openbittorrent.com%3A80&tr=udp%3A%2F%2Ftracker.publicbt.com%3A80&tr=udp%3A%2F%2Ftracker.ccc.de%3A80'
p1105
sg12
S'7037873'
p1106
sa(dp1107
g2
S'/torrent/7015961/Kingdoms_of_Amalur_Reckoning-SKIDROW'
p1108
sg4
S'Kingdoms_of_Amalur_Reckoning-SKIDROW'
p1109
sg6
S'/user/extremezone/'
p1110
sg8
S'extremezone'
p1111
sg10
S'magnet:?xt=urn:btih:4cec68aabbb1c93a11ea707594e5755939f73f79&dn=Kingdoms+of+Amalur+Reckoning-SKIDROW&tr=udp%3A%2F%2Ftracker.openbittorrent.com%3A80&tr=udp%3A%2F%2Ftracker.publicbt.com%3A80&tr=udp%3A%2F%2Ftracker.ccc.de%3A80'
p1112
sg12
S'7015961'
p1113
sa(dp1114
g2
S'/torrent/7033784/Immortals.2011.RETAIL.720p.BluRay.x264.DTS-HDChina'
p1115
sg4
S'Immortals.2011.RETAIL.720p.BluRay.x264.DTS-HDChina'
p1116
sg6
S'/user/BOZX/'
p1117
sg8
S'BOZX'
p1118
sg10
S'magnet:?xt=urn:btih:238471b8024792d1d9de6849af08cab6f381dac0&dn=Immortals.2011.RETAIL.720p.BluRay.x264.DTS-HDChina&tr=udp%3A%2F%2Ftracker.openbittorrent.com%3A80&tr=udp%3A%2F%2Ftracker.publicbt.com%3A80&tr=udp%3A%2F%2Ftracker.ccc.de%3A80'
p1119
sg12
S'7033784'
p1120
sa(dp1121
g2
S'/torrent/6341895/ADOBE_PHOTOSHOP_CS5.1_EXTENDED_EDITION_[thethingy]_'
p1122
sg4
S'ADOBE_PHOTOSHOP_CS5.1_EXTENDED_EDITION_[thethingy]_'
p1123
sg6
S'/user/thethingy/'
p1124
sg8
S'thethingy'
p1125
sg10
S'magnet:?xt=urn:btih:1bf228a96d276938d0d0b890af93680e3eebd0f7&dn=ADOBE+PHOTOSHOP+CS5.1+EXTENDED+EDITION+%5Bthethingy%5D+&tr=udp%3A%2F%2Ftracker.openbittorrent.com%3A80&tr=udp%3A%2F%2Ftracker.publicbt.com%3A80&tr=udp%3A%2F%2Ftracker.ccc.de%3A80'
p1126
sg12
S'6341895'
p1127
sa(dp1128
g2
S'/torrent/6700250/Drive_2011_SCR_XviD-playXD'
p1129
sg4
S'Drive_2011_SCR_XviD-playXD'
p1130
sg6
S'/user/extremezone/'
p1131
sg8
S'extremezone'
p1132
sg10
S'magnet:?xt=urn:btih:3f1b86f00dc9462b5f85d1adcb32ec138320edf3&dn=Drive+2011+SCR+XviD-playXD&tr=udp%3A%2F%2Ftracker.openbittorrent.com%3A80&tr=udp%3A%2F%2Ftracker.publicbt.com%3A80&tr=udp%3A%2F%2Ftracker.ccc.de%3A80'
p1133
sg12
S'6700250'
p1134
sa(dp1135
g435
S'/torrent/7036110/Justice.League.Doom.2012.BRRip.XviD.Ac3.Feel-Free'
p1136
sg4
S'Justice.League.Doom.2012.BRRip.XviD.Ac3.Feel-Free'
p1137
sg6
S'/user/neon'
p1138
sg8
S'user'
p1139
sg10
S'magnet:?xt=urn:btih:bd90874fde0630b50f5dac2565bb0ef511109e14&dn=Justice.League.Doom.2012.BRRip.XviD.Ac3.Feel-Free&tr=udp%3A%2F%2Ftracker.openbittorrent.com%3A80&tr=udp%3A%2F%2Ftracker.publicbt.com%3A80&tr=udp%3A%2F%2Ftracker.ccc.de%3A80'
p1140
sg12
S'7036110'
p1141
sa(dp1142
g2
S'/torrent/7035417/CSI_S12E14_HDTV_XviD-LOL_[eztv]'
p1143
sg4
S'CSI_S12E14_HDTV_XviD-LOL_[eztv]'
p1144
sg6
S'/user/eztv/'
p1145
sg8
S'eztv'
p1146
sg10
S'magnet:?xt=urn:btih:05f673c59224894e122c78c618d303f1fe29a146&dn=CSI+S12E14+HDTV+XviD-LOL+%5Beztv%5D&tr=udp%3A%2F%2Ftracker.openbittorrent.com%3A80&tr=udp%3A%2F%2Ftracker.publicbt.com%3A80&tr=udp%3A%2F%2Ftracker.ccc.de%3A80'
p1147
sg12
S'7035417'
p1148
sa(dp1149
g2
S'/torrent/7026876/Safe_House_2012_CAM_READNFO_XviD-ZOMBiES'
p1150
sg4
S'Safe_House_2012_CAM_READNFO_XviD-ZOMBiES'
p1151
sg6
S'/user/Hackulus/'
p1152
sg8
S'Hackulus'
p1153
sg10
S'magnet:?xt=urn:btih:4849b6ed7448a1d82a7f5b302f3fb33faaa19eed&dn=Safe+House+2012+CAM+READNFO+XviD-ZOMBiES&tr=udp%3A%2F%2Ftracker.openbittorrent.com%3A80&tr=udp%3A%2F%2Ftracker.publicbt.com%3A80&tr=udp%3A%2F%2Ftracker.ccc.de%3A80'
p1154
sg12
S'7026876'
p1155
sa(dp1156
g2
S'/torrent/7022384/Puss.In.Boots.2011.720p.BluRay.x264.DTS-HDChina'
p1157
sg4
S'Puss.In.Boots.2011.720p.BluRay.x264.DTS-HDChina'
p1158
sg6
S'/user/BOZX/'
p1159
sg8
S'BOZX'
p1160
sg10
S'magnet:?xt=urn:btih:81fab2a83c0c44b2fa7fc0115aa6242c3e0a3670&dn=Puss.In.Boots.2011.720p.BluRay.x264.DTS-HDChina&tr=udp%3A%2F%2Ftracker.openbittorrent.com%3A80&tr=udp%3A%2F%2Ftracker.publicbt.com%3A80&tr=udp%3A%2F%2Ftracker.ccc.de%3A80'
p1161
sg12
S'7022384'
p1162
sa(dp1163
g2
S'/torrent/6614245/Fast_and_Furious_5_Fast_Five_(2011)_DVDRip_XviD-MAX'
p1164
sg4
S'Fast_and_Furious_5_Fast_Five_(2011)_DVDRip_XviD-MAX'
p1165
sg6
S'/user/extremezone/'
p1166
sg8
S'extremezone'
p1167
sg10
S'magnet:?xt=urn:btih:ce1fc50bffb09962be8f3c49478cbeb65e2afe0f&dn=Fast+and+Furious+5+Fast+Five+%282011%29+DVDRip+XviD-MAX&tr=udp%3A%2F%2Ftracker.openbittorrent.com%3A80&tr=udp%3A%2F%2Ftracker.publicbt.com%3A80&tr=udp%3A%2F%2Ftracker.ccc.de%3A80'
p1168
sg12
S'6614245'
p1169
sa(dp1170
g2
S'/torrent/7007163/The_Iron_Lady_2011_DVDRip_XviD-TARGET'
p1171
sg4
S'The_Iron_Lady_2011_DVDRip_XviD-TARGET'
p1172
sg6
S'/user/extremezone/'
p1173
sg8
S'extremezone'
p1174
sg10
S'magnet:?xt=urn:btih:946a0a468351cf21f241b77fcff7e4222f8e148c&dn=The+Iron+Lady+2011+DVDRip+XviD-TARGET&tr=udp%3A%2F%2Ftracker.openbittorrent.com%3A80&tr=udp%3A%2F%2Ftracker.publicbt.com%3A80&tr=udp%3A%2F%2Ftracker.ccc.de%3A80'
p1175
sg12
S'7007163'
p1176
sa(dp1177
g2
S'/torrent/6804579/Glee_S03E05_HDTV_XviD-LOL[ettv]'
p1178
sg4
S'Glee_S03E05_HDTV_XviD-LOL[ettv]'
p1179
sg6
S'/user/ettv/'
p1180
sg8
S'ettv'
p1181
sg10
S'magnet:?xt=urn:btih:f79bfffec4279d71bc9d690596228eb06a5eb199&dn=Glee+S03E05+HDTV+XviD-LOL%5Bettv%5D&tr=udp%3A%2F%2Ftracker.openbittorrent.com%3A80&tr=udp%3A%2F%2Ftracker.publicbt.com%3A80&tr=udp%3A%2F%2Ftracker.ccc.de%3A80'
p1182
sg12
S'6804579'
p1183
sa(dp1184
g2
S'/torrent/7024088/Spartacus_S02E03_HDTV_XviD-ASAP[ettv]'
p1185
sg4
S'Spartacus_S02E03_HDTV_XviD-ASAP[ettv]'
p1186
sg6
S'/user/ettv/'
p1187
sg8
S'ettv'
p1188
sg10
S'magnet:?xt=urn:btih:a439a10aef308a6d2cbffee4772d43b2f5452aac&dn=Spartacus+S02E03+HDTV+XviD-ASAP%5Bettv%5D&tr=udp%3A%2F%2Ftracker.openbittorrent.com%3A80&tr=udp%3A%2F%2Ftracker.publicbt.com%3A80&tr=udp%3A%2F%2Ftracker.ccc.de%3A80'
p1189
sg12
S'7024088'
p1190
sa(dp1191
g2
S'/torrent/6247246/Adele_-_Discography_(Complete)_[2008_-_2011]'
p1192
sg4
S'Adele_-_Discography_(Complete)_[2008_-_2011]'
p1193
sg6
S'/user/locobot12/'
p1194
sg8
S'locobot12'
p1195
sg10
S'magnet:?xt=urn:btih:a05fe4cf806adff0963977feb8f8fa5c40c1b7a2&dn=Adele+-+Discography+%28Complete%29+%5B2008+-+2011%5D&tr=udp%3A%2F%2Ftracker.openbittorrent.com%3A80&tr=udp%3A%2F%2Ftracker.publicbt.com%3A80&tr=udp%3A%2F%2Ftracker.ccc.de%3A80'
p1196
sg12
S'6247246'
p1197
sa(dp1198
g2
S'/torrent/6937347/Tinker_Tailor_Soldier_Spy_2011_R5_DVDRip_XviD_AC3-26K'
p1199
sg4
S'Tinker_Tailor_Soldier_Spy_2011_R5_DVDRip_XviD_AC3-26K'
p1200
sg6
S'/user/froggie100/'
p1201
sg8
S'froggie100'
p1202
sg10
S'magnet:?xt=urn:btih:7270c0b12de6b3807545478295851cb0e4ce2071&dn=Tinker+Tailor+Soldier+Spy+2011+R5+DVDRip+XviD+AC3-26K&tr=udp%3A%2F%2Ftracker.openbittorrent.com%3A80&tr=udp%3A%2F%2Ftracker.publicbt.com%3A80&tr=udp%3A%2F%2Ftracker.ccc.de%3A80'
p1203
sg12
S'6937347'
p1204
sa(dp1205
g2
S'/torrent/7033027/New.Girl.S01E13.HDTV.XviD-LOL.[VTV].avi'
p1206
sg4
S'New.Girl.S01E13.HDTV.XviD-LOL.[VTV].avi'
p1207
sg6
S'/user/VTV/'
p1208
sg8
S'VTV'
p1209
sg10
S'magnet:?xt=urn:btih:ad5a39c8c0380b4698011576d0be20164452fa0f&dn=New.Girl.S01E13.HDTV.XviD-LOL.%5BVTV%5D.avi&tr=udp%3A%2F%2Ftracker.openbittorrent.com%3A80&tr=udp%3A%2F%2Ftracker.publicbt.com%3A80&tr=udp%3A%2F%2Ftracker.ccc.de%3A80'
p1210
sg12
S'7033027'
p1211
sa(dp1212
g2
S'/torrent/6744206/Crazy_Stupid_Love_DVDRip_XviD-TWiZTED'
p1213
sg4
S'Crazy_Stupid_Love_DVDRip_XviD-TWiZTED'
p1214
sg6
S'/user/extremezone/'
p1215
sg8
S'extremezone'
p1216
sg10
S'magnet:?xt=urn:btih:55799a4d83d9bfc0f964bc8b55dfae5daa104cef&dn=Crazy+Stupid+Love+DVDRip+XviD-TWiZTED&tr=udp%3A%2F%2Ftracker.openbittorrent.com%3A80&tr=udp%3A%2F%2Ftracker.publicbt.com%3A80&tr=udp%3A%2F%2Ftracker.ccc.de%3A80'
p1217
sg12
S'6744206'
p1218
sa(dp1219
g2
S'/torrent/6988119/The_Big_Bang_Theory_S05E14_HDTV_XviD-LOL_[eztv]'
p1220
sg4
S'The_Big_Bang_Theory_S05E14_HDTV_XviD-LOL_[eztv]'
p1221
sg6
S'/user/eztv/'
p1222
sg8
S'eztv'
p1223
sg10
S'magnet:?xt=urn:btih:2cef1fd4af29c17acbc41d6e1828610df30b5b8d&dn=The+Big+Bang+Theory+S05E14+HDTV+XviD-LOL+%5Beztv%5D&tr=udp%3A%2F%2Ftracker.openbittorrent.com%3A80&tr=udp%3A%2F%2Ftracker.publicbt.com%3A80&tr=udp%3A%2F%2Ftracker.ccc.de%3A80'
p1224
sg12
S'6988119'
p1225
sa(dp1226
g2
S'/torrent/7011621/Chronicle_2012_TS_XviD_-_MiSTERE'
p1227
sg4
S'Chronicle_2012_TS_XviD_-_MiSTERE'
p1228
sg6
S'/user/Hackulus/'
p1229
sg8
S'Hackulus'
p1230
sg10
S'magnet:?xt=urn:btih:a96e2aeea77904b83e6ea97ed748ee16d9040c4f&dn=Chronicle+2012+TS+XviD+-+MiSTERE&tr=udp%3A%2F%2Ftracker.openbittorrent.com%3A80&tr=udp%3A%2F%2Ftracker.publicbt.com%3A80&tr=udp%3A%2F%2Ftracker.ccc.de%3A80'
p1231
sg12
S'7011621'
p1232
sa(dp1233
g2
S'/torrent/6893271/Mission.Impossible.4.Ghost.Protocol.2011.CAM.READNFO.XviD-BiDA'
p1234
sg4
S'Mission.Impossible.4.Ghost.Protocol.2011.CAM.READNFO.XviD-BiDA'
p1235
sg6
S'/user/.BONE./'
p1236
sg8
S'.BONE.'
p1237
sg10
S'magnet:?xt=urn:btih:308b0b2e77cba28f118bbff479ec49e17033024e&dn=Mission.Impossible.4.Ghost.Protocol.2011.CAM.READNFO.XviD-BiDA&tr=udp%3A%2F%2Ftracker.openbittorrent.com%3A80&tr=udp%3A%2F%2Ftracker.publicbt.com%3A80&tr=udp%3A%2F%2Ftracker.ccc.de%3A80'
p1238
sg12
S'6893271'
p1239
sa(dp1240
g2
S'/torrent/7021180/The_Vampire_Diaries_S03E14_HDTV_XviD-LOL_[eztv]'
p1241
sg4
S'The_Vampire_Diaries_S03E14_HDTV_XviD-LOL_[eztv]'
p1242
sg6
S'/user/eztv/'
p1243
sg8
S'eztv'
p1244
sg10
S'magnet:?xt=urn:btih:5bb908ec040a24f6c71736ce172be2d8a2aa71dd&dn=The+Vampire+Diaries+S03E14+HDTV+XviD-LOL+%5Beztv%5D&tr=udp%3A%2F%2Ftracker.openbittorrent.com%3A80&tr=udp%3A%2F%2Ftracker.publicbt.com%3A80&tr=udp%3A%2F%2Ftracker.ccc.de%3A80'
p1245
sg12
S'7021180'
p1246
sa(dp1247
g2
S'/torrent/7024130/Fringe_S04E12_HDTV_XviD-LOL_[eztv]'
p1248
sg4
S'Fringe_S04E12_HDTV_XviD-LOL_[eztv]'
p1249
sg6
S'/user/eztv/'
p1250
sg8
S'eztv'
p1251
sg10
S'magnet:?xt=urn:btih:8c1f65f61ce66c2b2497c08ddc52643d2a891f2b&dn=Fringe+S04E12+HDTV+XviD-LOL+%5Beztv%5D&tr=udp%3A%2F%2Ftracker.openbittorrent.com%3A80&tr=udp%3A%2F%2Ftracker.publicbt.com%3A80&tr=udp%3A%2F%2Ftracker.ccc.de%3A80'
p1252
sg12
S'7024130'
p1253
sa(dp1254
g2
S'/torrent/6823944/The_Help_DVDRip_XviD-DiAMOND'
p1255
sg4
S'The_Help_DVDRip_XviD-DiAMOND'
p1256
sg6
S'/user/.BONE./'
p1257
sg8
S'.BONE.'
p1258
sg10
S'magnet:?xt=urn:btih:3def99d1f812f937bdd114e0d2107551bce9ac41&dn=The+Help+DVDRip+XviD-DiAMOND&tr=udp%3A%2F%2Ftracker.openbittorrent.com%3A80&tr=udp%3A%2F%2Ftracker.publicbt.com%3A80&tr=udp%3A%2F%2Ftracker.ccc.de%3A80'
p1259
sg12
S'6823944'
p1260
sa(dp1261
g2
S'/torrent/7020724/The_Darkness_II-SKIDROW'
p1262
sg4
S'The_Darkness_II-SKIDROW'
p1263
sg6
S'/user/extremezone/'
p1264
sg8
S'extremezone'
p1265
sg10
S'magnet:?xt=urn:btih:a97ddfdcf4d21700b63a4b811e2618f9b139506b&dn=The+Darkness+II-SKIDROW&tr=udp%3A%2F%2Ftracker.openbittorrent.com%3A80&tr=udp%3A%2F%2Ftracker.publicbt.com%3A80&tr=udp%3A%2F%2Ftracker.ccc.de%3A80'
p1266
sg12
S'7020724'
p1267
sa(dp1268
g2
S'/torrent/6778404/Wale_-_Ambition_[2011_Album]'
p1269
sg4
S'Wale_-_Ambition_[2011_Album]'
p1270
sg6
S'/user/theLEAK/'
p1271
sg8
S'theLEAK'
p1272
sg10
S'magnet:?xt=urn:btih:aeff6f5a35f4a41d599205dee91f1910954230c5&dn=Wale+-+Ambition+%5B2011+Album%5D&tr=udp%3A%2F%2Ftracker.openbittorrent.com%3A80&tr=udp%3A%2F%2Ftracker.publicbt.com%3A80&tr=udp%3A%2F%2Ftracker.ccc.de%3A80'
p1273
sg12
S'6778404'
p1274
sa(dp1275
g2
S'/torrent/6804685/Sons_of_Anarchy_S04E10_HDTV_XviD-ASAP[ettv]'
p1276
sg4
S'Sons_of_Anarchy_S04E10_HDTV_XviD-ASAP[ettv]'
p1277
sg6
S'/user/ettv/'
p1278
sg8
S'ettv'
p1279
sg10
S'magnet:?xt=urn:btih:4336de40d95d1e1c0909aa5732b96f87c84e6d77&dn=Sons+of+Anarchy+S04E10+HDTV+XviD-ASAP%5Bettv%5D&tr=udp%3A%2F%2Ftracker.openbittorrent.com%3A80&tr=udp%3A%2F%2Ftracker.publicbt.com%3A80&tr=udp%3A%2F%2Ftracker.ccc.de%3A80'
p1280
sg12
S'6804685'
p1281
sa(dp1282
g2
S'/torrent/6484010/Big_Sean_-_Finally_Famous_(Full_Album)_[Silver_RG]_-_PR_M3'
p1283
sg4
S'Big_Sean_-_Finally_Famous_(Full_Album)_[Silver_RG]_-_PR_M3'
p1284
sg6
S'/user/L3G3ND/'
p1285
sg8
S'L3G3ND'
p1286
sg10
S'magnet:?xt=urn:btih:0fc3d3cd170fdba7b39e3fc22299c449f8ade05f&dn=Big+Sean+-+Finally+Famous+%28Full+Album%29+%5BSilver+RG%5D+-+PR%21M3&tr=udp%3A%2F%2Ftracker.openbittorrent.com%3A80&tr=udp%3A%2F%2Ftracker.publicbt.com%3A80&tr=udp%3A%2F%2Ftracker.ccc.de%3A80'
p1287
sg12
S'6484010'
p1288
sa(dp1289
g2
S'/torrent/7027182/Californication_S05E06_HDTV_XviD-ASAP_[eztv]'
p1290
sg4
S'Californication_S05E06_HDTV_XviD-ASAP_[eztv]'
p1291
sg6
S'/user/eztv/'
p1292
sg8
S'eztv'
p1293
sg10
S'magnet:?xt=urn:btih:9bde5a9d511e06abdcae5b2e70c430cbb509a20b&dn=Californication+S05E06+HDTV+XviD-ASAP+%5Beztv%5D&tr=udp%3A%2F%2Ftracker.openbittorrent.com%3A80&tr=udp%3A%2F%2Ftracker.publicbt.com%3A80&tr=udp%3A%2F%2Ftracker.ccc.de%3A80'
p1294
sg12
S'7027182'
p1295
sa(dp1296
g2
S'/torrent/6627351/Friends_with_Benefits_2011_R5_LiNE_READNFO_XViD-IMAGiNE'
p1297
sg4
S'Friends_with_Benefits_2011_R5_LiNE_READNFO_XViD-IMAGiNE'
p1298
sg6
S'/user/extremezone/'
p1299
sg8
S'extremezone'
p1300
sg10
S'magnet:?xt=urn:btih:a175d536d1c69a00d0bf0b071b4a5f092e83713b&dn=Friends+with+Benefits+2011+R5+LiNE+READNFO+XViD-IMAGiNE&tr=udp%3A%2F%2Ftracker.openbittorrent.com%3A80&tr=udp%3A%2F%2Ftracker.publicbt.com%3A80&tr=udp%3A%2F%2Ftracker.ccc.de%3A80'
p1301
sg12
S'6627351'
p1302
sa(dp1303
g2
S'/torrent/7014989/The_Big_Bang_Theory_S05E15_HDTV_XviD-LOL_'
p1304
sg4
S'The_Big_Bang_Theory_S05E15_HDTV_XviD-LOL_'
p1305
sg6
S'/user/neon/'
p1306
sg8
S'neon'
p1307
sg10
S'magnet:?xt=urn:btih:0d81e8687ca29f76f62d64b907510ed613a4beff&dn=The+Big+Bang+Theory+S05E15+HDTV+XviD-LOL+&tr=udp%3A%2F%2Ftracker.openbittorrent.com%3A80&tr=udp%3A%2F%2Ftracker.publicbt.com%3A80&tr=udp%3A%2F%2Ftracker.ccc.de%3A80'
p1308
sg12
S'7014989'
p1309
sa(dp1310
g2
S'/torrent/7007027/Footloose.2011.DVDRip.XviD-_PADDO'
p1311
sg4
S'Footloose.2011.DVDRip.XviD-_PADDO'
p1312
sg6
S'/user/LegendET/'
p1313
sg8
S'LegendET'
p1314
sg10
S'magnet:?xt=urn:btih:749ac8e7a7d0dd46bb0417a9dfb38c59d2600e15&dn=Footloose.2011.DVDRip.XviD-+PADDO&tr=udp%3A%2F%2Ftracker.openbittorrent.com%3A80&tr=udp%3A%2F%2Ftracker.publicbt.com%3A80&tr=udp%3A%2F%2Ftracker.ccc.de%3A80'
p1315
sg12
S'7007027'
p1316
sa(dp1317
g2
S'/torrent/6802177/Terra_Nova_S01E07_HDTV_XviD-LOL[ettv]'
p1318
sg4
S'Terra_Nova_S01E07_HDTV_XviD-LOL[ettv]'
p1319
sg6
S'/user/ettv/'
p1320
sg8
S'ettv'
p1321
sg10
S'magnet:?xt=urn:btih:cdb55c400fcf6aa07e9c39bf712c346e67eebb8e&dn=Terra+Nova+S01E07+HDTV+XviD-LOL%5Bettv%5D&tr=udp%3A%2F%2Ftracker.openbittorrent.com%3A80&tr=udp%3A%2F%2Ftracker.publicbt.com%3A80&tr=udp%3A%2F%2Ftracker.ccc.de%3A80'
p1322
sg12
S'6802177'
p1323
sa(dp1324
g2
S'/torrent/7035689/American_Idol_S11E10_Hollywood_Round_Part_2_HDTV_XviD-FQM_[eztv]'
p1325
sg4
S'American_Idol_S11E10_Hollywood_Round_Part_2_HDTV_XviD-FQM_[eztv]'
p1326
sg6
S'/user/eztv/'
p1327
sg8
S'eztv'
p1328
sg10
S'magnet:?xt=urn:btih:dc861b0ea893adf954ac74ff56d9136c26e1efa8&dn=American+Idol+S11E10+Hollywood+Round+Part+2+HDTV+XviD-FQM+%5Beztv%5D&tr=udp%3A%2F%2Ftracker.openbittorrent.com%3A80&tr=udp%3A%2F%2Ftracker.publicbt.com%3A80&tr=udp%3A%2F%2Ftracker.ccc.de%3A80'
p1329
sg12
S'7035689'
p1330
sa(dp1331
g2
S'/torrent/7034452/Immortals[2011]BRRip_XviD-ETRG'
p1332
sg4
S'Immortals[2011]BRRip_XviD-ETRG'
p1333
sg6
S'/user/SaM/'
p1334
sg8
S'SaM'
p1335
sg10
S'magnet:?xt=urn:btih:952430547166e9ebfdaa55de02574ca5f30df03a&dn=Immortals%5B2011%5DBRRip+XviD-ETRG&tr=udp%3A%2F%2Ftracker.openbittorrent.com%3A80&tr=udp%3A%2F%2Ftracker.publicbt.com%3A80&tr=udp%3A%2F%2Ftracker.ccc.de%3A80'
p1336
sg12
S'7034452'
p1337
sa(dp1338
g2
S'/torrent/6838637/Killer_Elite_2011_DVDRiP_AC3_XViD-nLiBRA'
p1339
sg4
S'Killer_Elite_2011_DVDRiP_AC3_XViD-nLiBRA'
p1340
sg6
S'/user/extremezone/'
p1341
sg8
S'extremezone'
p1342
sg10
S'magnet:?xt=urn:btih:e15848fa0e7ee7c8a351a06d65c29c80424d80a1&dn=Killer+Elite+2011+DVDRiP+AC3+XViD-nLiBRA&tr=udp%3A%2F%2Ftracker.openbittorrent.com%3A80&tr=udp%3A%2F%2Ftracker.publicbt.com%3A80&tr=udp%3A%2F%2Ftracker.ccc.de%3A80'
p1343
sg12
S'6838637'
p1344
sa(dp1345
g2
S'/torrent/6631250/Thor_(2011)_DVDRip_XviD-MAX'
p1346
sg4
S'Thor_(2011)_DVDRip_XviD-MAX'
p1347
sg6
S'/user/extremezone/'
p1348
sg8
S'extremezone'
p1349
sg10
S'magnet:?xt=urn:btih:9a8efd265d29d75a73e91a189f874800748e7486&dn=Thor+%282011%29+DVDRip+XviD-MAX&tr=udp%3A%2F%2Ftracker.openbittorrent.com%3A80&tr=udp%3A%2F%2Ftracker.publicbt.com%3A80&tr=udp%3A%2F%2Ftracker.ccc.de%3A80'
p1350
sg12
S'6631250'
p1351
sa(dp1352
g2
S'/torrent/6923292/Sherlock_Holmes__A_Game_of_Shadows_2011_TS_XviD_26K-BiDA'
p1353
sg4
S'Sherlock_Holmes__A_Game_of_Shadows_2011_TS_XviD_26K-BiDA'
p1354
sg6
S'/user/froggie100/'
p1355
sg8
S'froggie100'
p1356
sg10
S'magnet:?xt=urn:btih:12086b138175dc7a28981c88a477f4aad01747e4&dn=Sherlock+Holmes%3A+A+Game+of+Shadows+2011+TS+XviD+26K-BiDA&tr=udp%3A%2F%2Ftracker.openbittorrent.com%3A80&tr=udp%3A%2F%2Ftracker.publicbt.com%3A80&tr=udp%3A%2F%2Ftracker.ccc.de%3A80'
p1357
sg12
S'6923292'
p1358
sa(dp1359
g2
S'/torrent/6142952/LMFAO_-_Party_Rock_Anthem_[2011-Single_320][TJ]'
p1360
sg4
S'LMFAO_-_Party_Rock_Anthem_[2011-Single_320][TJ]'
p1361
sg6
S'/user/.TJ./'
p1362
sg8
S'.TJ.'
p1363
sg10
S'magnet:?xt=urn:btih:3bccaae20181d6cc31e1d0a3253b6e0ddb6ceff1&dn=LMFAO+-+Party+Rock+Anthem+%5B2011-Single%40320%5D%5BTJ%5D&tr=udp%3A%2F%2Ftracker.openbittorrent.com%3A80&tr=udp%3A%2F%2Ftracker.publicbt.com%3A80&tr=udp%3A%2F%2Ftracker.ccc.de%3A80'
p1364
sg12
S'6142952'
p1365
sa(dp1366
g2
S'/torrent/6631386/David_Guetta_-_Nothing_But_The_Beat_(Album)_(2_CD)_(Mp3)'
p1367
sg4
S'David_Guetta_-_Nothing_But_The_Beat_(Album)_(2_CD)_(Mp3)'
p1368
sg6
S'/user/-inspiron-/'
p1369
sg8
S'-inspiron-'
p1370
sg10
S'magnet:?xt=urn:btih:ecc8b205c823f177150f0aa1d1ab56f81e764a23&dn=David+Guetta+-+Nothing+But+The+Beat+%28Album%29+%282+CD%29+%28Mp3%29&tr=udp%3A%2F%2Ftracker.openbittorrent.com%3A80&tr=udp%3A%2F%2Ftracker.publicbt.com%3A80&tr=udp%3A%2F%2Ftracker.ccc.de%3A80'
p1371
sg12
S'6631386'
p1372
sa(dp1373
g2
S'/torrent/6768548/Battlefield_3-RELOADED'
p1374
sg4
S'Battlefield_3-RELOADED'
p1375
sg6
S'/user/extremezone/'
p1376
sg8
S'extremezone'
p1377
sg10
S'magnet:?xt=urn:btih:3aa0fdcb47c721622bf551ffe78138743516dec2&dn=Battlefield+3-RELOADED&tr=udp%3A%2F%2Ftracker.openbittorrent.com%3A80&tr=udp%3A%2F%2Ftracker.publicbt.com%3A80&tr=udp%3A%2F%2Ftracker.ccc.de%3A80'
p1378
sg12
S'6768548'
p1379
sa(dp1380
g2
S'/torrent/7030364/Castle_2009_S04E15_HDTV_XviD-LOL_[eztv]'
p1381
sg4
S'Castle_2009_S04E15_HDTV_XviD-LOL_[eztv]'
p1382
sg6
S'/user/eztv/'
p1383
sg8
S'eztv'
p1384
sg10
S'magnet:?xt=urn:btih:2a7c5e9bf2882f80644ca0b56041c17acb2af5f0&dn=Castle+2009+S04E15+HDTV+XviD-LOL+%5Beztv%5D&tr=udp%3A%2F%2Ftracker.openbittorrent.com%3A80&tr=udp%3A%2F%2Ftracker.publicbt.com%3A80&tr=udp%3A%2F%2Ftracker.ccc.de%3A80'
p1385
sg12
S'7030364'
p1386
sa(dp1387
g2
S'/torrent/7036727/Justice_League_Doom[2012]BRRip_XviD-ETRG'
p1388
sg4
S'Justice_League_Doom[2012]BRRip_XviD-ETRG'
p1389
sg6
S'/user/SaM/'
p1390
sg8
S'SaM'
p1391
sg10
S'magnet:?xt=urn:btih:93b947af53976649f8955104ee6840d7f35bdd2f&dn=Justice+League+Doom%5B2012%5DBRRip+XviD-ETRG&tr=udp%3A%2F%2Ftracker.openbittorrent.com%3A80&tr=udp%3A%2F%2Ftracker.publicbt.com%3A80&tr=udp%3A%2F%2Ftracker.ccc.de%3A80'
p1392
sg12
S'7036727'
p1393
sa(dp1394
g2
S'/torrent/7037864/The_Secret_Circle_S01E15_HDTV_XviD-LOL_[eztv]'
p1395
sg4
S'The_Secret_Circle_S01E15_HDTV_XviD-LOL_[eztv]'
p1396
sg6
S'/user/eztv/'
p1397
sg8
S'eztv'
p1398
sg10
S'magnet:?xt=urn:btih:8e201ce68e791528112a12244f79c14e08538e69&dn=The+Secret+Circle+S01E15+HDTV+XviD-LOL+%5Beztv%5D&tr=udp%3A%2F%2Ftracker.openbittorrent.com%3A80&tr=udp%3A%2F%2Ftracker.publicbt.com%3A80&tr=udp%3A%2F%2Ftracker.ccc.de%3A80'
p1399
sg12
S'7037864'
p1400
sa(dp1401
g2
S'/torrent/6729422/Midnight_in_Paris_DVDRip_XviD-TARGET'
p1402
sg4
S'Midnight_in_Paris_DVDRip_XviD-TARGET'
p1403
sg6
S'/user/extremezone/'
p1404
sg8
S'extremezone'
p1405
sg10
S'magnet:?xt=urn:btih:be1d8b61d0eb5adb6d45178865b4b7308d8d8f43&dn=Midnight+in+Paris+DVDRip+XviD-TARGET&tr=udp%3A%2F%2Ftracker.openbittorrent.com%3A80&tr=udp%3A%2F%2Ftracker.publicbt.com%3A80&tr=udp%3A%2F%2Ftracker.ccc.de%3A80'
p1406
sg12
S'6729422'
p1407
sa.